(lp1
(lp2
(lp3
F0.088780618678517373
aF0.44931949984430658
aF0.28932377669608278
aF0.044552327062120159
aF0.75041524454969477
aF0.86579451071213054
aF0.075594221781333099
aF0.71765473938809576
aF0.99308639611322092
aF0.084156783786851583
aF0.56939030036003691
aF0.069615526326943275
aF0.096756240940332416
aF0.10132313673541798
aF0.066297608237661135
aF0.10575534582370641
aF0.19149916920327895
aF0.097866388643354507
aa(lp4
F0.095506058213981768
aF0.44833439946881748
aF0.31032217985677601
aF0.044552327062120159
aF0.78346162898300231
aF0.99046218254431406
aF0.078741972587308584
aF0.72462887262091769
aF0.99515605793628192
aF0.1073302977803496
aF0.51941107072363302
aF0.070007758973517881
aF0.11871174755887462
aF0.096069996944731062
aF0.069910087759379139
aF0.090649170339739765
aF0.11392163195315716
aF0.09818332658986012
aa(lp5
F0.10196896651998204
aF0.449624978745719
aF0.30184274212283563
aF0.052993721892358236
aF0.75752081132555615
aF0.98963227166793499
aF0.060559250908069379
aF0.73141017382406315
aF0.99004950506686917
aF0.12171334536194155
aF0.5201957651588609
aF0.068756923694118219
aF0.12437143931311445
aF0.077336688401242762
aF0.066018721010544554
aF0.13600615000000743
aF0.20822432246831557
aF0.09818332658986012
aa(lp6
F0.095269298465671629
aF0.44502902718689891
aF0.29440644430471241
aF0.052993721892358236
aF0.75752081132555615
aF0.98389664011722255
aF0.068344403190779113
aF0.72664447601152993
aF0.99079057410204041
aF0.086207874568189194
aF0.5154224979193075
aF0.068449783372368039
aF0.12946439872510135
aF0.081474898576391896
aF0.064023634649569033
aF0.13600615000000743
aF0.20822432246831557
aF0.069578059991749763
aa(lp7
F0.1047619840520632
aF0.41395510964302118
aF0.29707616849901003
aF0.1170912677907026
aF0.76109894667392319
aF0.98389664011722255
aF0.093870543957722735
aF0.69603124182876852
aF0.99079057410204041
aF0.086253441970868941
aF0.51536403625298866
aF0.068199575569942092
aF0.12946439872510135
aF0.078914832073614272
aF0.066643985998200705
aF0.099458415914100817
aF0.12085764518322845
aF0.069578059991749763
aa(lp8
F0.11555505450228497
aF0.40105173532043853
aF0.29882728063056263
aF0.23257325990759958
aF0.76109894667392319
aF0.98683323858131156
aF0.095752722710825855
aF0.70715981486599266
aF0.99088681879198426
aF0.085967442902341276
aF0.50018506853688072
aF0.069329074655046605
aF0.14626795671691931
aF0.060863323038419424
aF0.067052747814959957
aF0.10276299799328911
aF0.10281586611171163
aF0.070372765086965383
aa(lp9
F0.10625581214748582
aF0.40410327411009794
aF0.29943952331850116
aF0.18631336055469783
aF0.76516895748633729
aF0.98683323858131156
aF0.086064604053975147
aF0.69807515166533718
aF0.99200421333440414
aF0.087911909214935399
aF0.5032057233694599
aF0.068756923694118219
aF0.10845455957119812
aF0.049056909547256597
aF0.066805281335951608
aF0.10276299799328911
aF0.11826730508570729
aF0.070372765086965383
aa(lp10
F0.098047387350451806
aF0.39539208950861704
aF0.29975141519006909
aF0.18631336055469783
aF0.78026672665557539
aF0.99390529119000315
aF0.10806000623652265
aF0.70359995113346685
aF0.99205390577458885
aF0.095693183518200678
aF0.50426537759024859
aF0.068374501229123683
aF0.090177149552480018
aF0.047295687667861255
aF0.06725313760046904
aF0.10186547986111952
aF0.11826730508570729
aF0.067767436882035403
aa(lp11
F0.10668101777844881
aF0.41673182114961393
aF0.30017983469627035
aF0.080379339999718191
aF0.76645989888227084
aF0.9900023874868541
aF0.096738560579893856
aF0.71800503949878036
aF0.99157525849666495
aF0.10821351564692265
aF0.50629011791877065
aF0.069394765143674556
aF0.098105063327864284
aF0.078396742109703418
aF0.067597358028635424
aF0.11074250622179174
aF0.10114483029411311
aF0.070890219244018254
aa(lp12
F0.12643205607893454
aF0.41024132523853024
aF0.30025738978619043
aF0.080379339999718191
aF0.76645989888227084
aF0.98663797218836047
aF0.10699497786366483
aF0.71020684909567056
aF0.99116941079722642
aF0.13168100682087219
aF0.520519929122087
aF0.069824187662588647
aF0.14080510947433583
aF0.083542294727795355
aF0.067607195938067285
aF0.11074250622179174
aF0.10114483029411311
aF0.072291222090804033
aa(lp13
F0.14946641410471057
aF0.38875123118393062
aF0.29923404919037494
aF0.28220949271452689
aF0.75940265371812754
aF0.98663797218836047
aF0.12525839054850782
aF0.70021842066321383
aF0.99181676407471797
aF0.13984856484395142
aF0.50905661867221597
aF0.069447865443333048
aF0.15891606048768478
aF0.079950310096517443
aF0.066663614304726726
aF0.12271811462260368
aF0.09182149324789185
aF0.072291222090804033
aa(lp14
F0.12390102784926611
aF0.41310229560519374
aF0.29793749721927226
aF0.13596314189763889
aF0.75940265371812754
aF0.99208199544054065
aF0.099579474637622484
aF0.71397750083514955
aF0.99053188073420484
aF0.095685472977686967
aF0.5154224979193075
aF0.068756923694118219
aF0.14468200873646914
aF0.11273949693562835
aF0.065808593356093167
aF0.12271811462260368
aF0.09182149324789185
aF0.069354321010822242
aa(lp15
F0.11671768139388501
aF0.42461698921592422
aF0.29761871597281636
aF0.13596314189763889
aF0.7540309340261121
aF0.99208199544054065
aF0.098757594366043894
aF0.72348964711052111
aF0.989506025580416
aF0.11134468089185591
aF0.5154224979193075
aF0.068756923694118219
aF0.12494111247306869
aF0.091533906974258991
aF0.067114653107963732
aF0.13728697339889304
aF0.12704246307242062
aF0.069354321010822242
aa(lp16
F0.14709704273692809
aF0.41891135288246056
aF0.29993700995919498
aF0.28417687991953366
aF0.7540309340261121
aF0.99321479614118979
aF0.14584402631586149
aF0.71212045501578514
aF0.989506025580416
aF0.13215205998573448
aF0.53007760847630503
aF0.06890880576718704
aF0.13805057739034485
aF0.091533906974258991
aF0.067114653107963732
aF0.13728697339889304
aF0.12704246307242062
aF0.069781267345433565
aa(lp17
F0.14719008854588933
aF0.43956865323218425
aF0.30145526303405795
aF0.29030521465193082
aF0.81505933627397165
aF0.99321479614118979
aF0.1190313399607871
aF0.71905416330182947
aF0.99451046479211891
aF0.14754370976298781
aF0.53007760847630503
aF0.068472224996961831
aF0.13805057739034485
aF0.11234723485395549
aF0.066542202146869886
aF0.11490795487374797
aF0.055855414502492658
aF0.069781267345433565
aaa(lp18
(lp19
F0.11401213997500435
aF0.4308750009978059
aF0.28364118261037391
aF0.18754684530912566
aF0.76264055289643284
aF0.88100916558233899
aF0.097288042852181483
aF0.71223077197579199
aF0.99122940584787267
aF0.1020363701330189
aF0.53079561325305968
aF0.06874366847871681
aF0.11735109575547314
aF0.073602423075433562
aF0.065937650057722744
aF0.11662947157109763
aF0.20494891626146816
aF0.072794899920303247
aa(lp20
F0.09081568153382806
aF0.40808807895398769
aF0.29978635862163255
aF0.18754684530912566
aF0.76264055289643284
aF0.9873603424798475
aF0.074899141752909376
aF0.70805181670566497
aF0.98977422050584118
aF0.073817616015156282
aF0.5396162617445851
aF0.068730413263315401
aF0.091285615073789517
aF0.075443558180337669
aF0.068561287774138391
aF0.1058757142197915
aF0.087791752518079816
aF0.075855909266168239
aa(lp21
F0.1086305928666494
aF0.41137747572290656
aF0.29926782447079908
aF0.22371692670910742
aF0.78933823579059337
aF0.9873603424798475
aF0.093809078157123332
aF0.70973045615988817
aF0.9900232931712899
aF0.11292414363471236
aF0.54593630298844464
aF0.068822683851403721
aF0.11478466466381385
aF0.067060309593475378
aF0.068414889935797529
aF0.074488984004234093
aF0.054306443678277735
aF0.075855909266168239
aa(lp22
F0.12804954769751326
aF0.41833669984975297
aF0.30407734039315493
aF0.10142166462387216
aF0.75062062283708508
aF0.99425056975235937
aF0.12361146795502151
aF0.71478810397878889
aF0.99299578977339575
aF0.14738586225675593
aF0.54193260439744151
aF0.070690444525544266
aF0.12405848388576329
aF0.081654984320101584
aF0.06729388467635547
aF0.10486565822422003
aF0.11173529302497737
aF0.088813823308511189
aa(lp23
F0.12803796724167876
aF0.40852265302244783
aF0.30313367309932215
aF0.10142166462387216
aF0.75062062283708508
aF0.99464830432419948
aF0.07521425449462979
aF0.67877607464303724
aF0.99243422940768544
aF0.11186418429850457
aF0.50668512701326252
aF0.069383765633356478
aF0.16514499882423092
aF0.07770473441553287
aF0.066241944401932748
aF0.14914274979496475
aF0.19990174160004676
aF0.088813823308511189
aa(lp24
F0.11571575393973023
aF0.41904473295826306
aF0.29973469608178949
aF0.12162486372865008
aF0.78184525845820552
aF0.99464830432419948
aF0.065339896459983615
aF0.70069692174597586
aF0.99411712738232327
aF0.1081317535861215
aF0.5154224979193075
aF0.068904556009247303
aF0.11846948748409361
aF0.0520667809111501
aF0.06589887137337605
aF0.14914274979496475
aF0.19990174160004676
aF0.065751804458266505
aa(lp25
F0.10012988520884748
aF0.44060378211637391
aF0.30178562374135376
aF0.098247676656441948
aF0.73924024741877259
aF0.99665864849619812
aF0.049653362437758863
aF0.73703626325073457
aF0.99464268200842798
aF0.1066753196625531
aF0.52499179839432519
aF0.068756923694118219
aF0.1131518441717736
aF0.10004193133307507
aF0.065600714580532293
aF0.1489977093358538
aF0.1764393660599094
aF0.076845044517359948
aa(lp26
F0.11575402432512398
aF0.42108018382359225
aF0.30062352424755073
aF0.098247676656441948
aF0.73924024741877259
aF0.99497524913433255
aF0.12333345038154284
aF0.73111132418620117
aF0.99385184523545955
aF0.12238756543537062
aF0.5154224979193075
aF0.068756923694118219
aF0.12430101027941146
aF0.0570454039801453
aF0.06474450861035709
aF0.1489977093358538
aF0.1764393660599094
aF0.076845044517359948
aa(lp27
F0.13360615091713585
aF0.39420745140847746
aF0.29877421742473059
aF0.24617489660260164
aF0.76622209375206574
aF0.9946710251348132
aF0.13394338038876072
aF0.70677896008462537
aF0.99324056189800469
aF0.13649177052832867
aF0.50945011471942214
aF0.06915800087098968
aF0.12549301687349518
aF0.054112177592853056
aF0.065463203602746739
aF0.11273582868202262
aF0.073643638368414588
aF0.0649075670328534
aa(lp28
F0.12268450661463211
aF0.4199474795788915
aF0.29723777008739205
aF0.19289146737582116
aF0.76622209375206574
aF0.99253232515926315
aF0.096584816846681382
aF0.70042196332938
aF0.99194382641268186
aF0.11969252160289083
aF0.53057120868194296
aF0.068756923694118219
aF0.12782030349404183
aF0.078938184038987655
aF0.06515023440594761
aF0.11764492015732411
aF0.11299449504783646
aF0.0649075670328534
aa(lp29
F0.12266048118766364
aF0.4212268985806023
aF0.2965502855413244
aF0.19289146737582116
aF0.76571618304484224
aF0.99253232515926315
aF0.084309584694938294
aF0.72000339240885403
aF0.99169748687982773
aF0.12685877519125938
aF0.52875379989656834
aF0.068756923694118219
aF0.13156992926917296
aF0.077476881528974029
aF0.065075993684165848
aF0.11764492015732411
aF0.11299449504783646
aF0.062144137530197471
aa(lp30
F0.1419539930532297
aF0.35637178812305609
aF0.29864858541912848
aF0.32691632456109032
aF0.76571618304484224
aF0.99628565768922839
aF0.17180827526772649
aF0.69013386191650217
aF0.9935468126312651
aF0.15652076961916889
aF0.52875379989656834
aF0.069520037097521359
aF0.12775429921027021
aF0.050097851500866555
aF0.065548464936109108
aF0.078972823267530717
aF0.033455126697254332
aF0.062144137530197471
aaa(lp31
(lp32
F0.10104965078130505
aF0.43675669248578386
aF0.31739422855933463
aF0.11994296313477604
aF0.77654618260685959
aF0.99260934129355294
aF0.07694131550140057
aF0.71655502268022109
aF0.99093057882128477
aF0.095584000386395099
aF0.55697150949827079
aF0.068756923694118219
aF0.10421405343145715
aF0.091910527043267243
aF0.068939898275004227
aF0.11734318846802444
aF0.11838709141403329
aF0.19022621556760627
aa(lp33
F0.094192095799088174
aF0.44729772942416435
aF0.2959956457529328
aF0.030986019480426785
aF0.80544361492592031
aF0.97697674716205818
aF0.040220133165005639
aF0.72210987766875612
aF0.99111906331511168
aF0.11723496009858743
aF0.5154224979193075
aF0.068756923694118219
aF0.11635405764021406
aF0.077549855281423524
aF0.065300824889134537
aF0.10350301155428199
aF0.16658929042108112
aF0.068225606895898655
aa(lp34
F0.10078328378871561
aF0.4290791666326117
aF0.2979467811369641
aF0.030986019480426785
aF0.79909194903779313
aF0.97697674716205818
aF0.092602183759679352
aF0.7131792383185992
aF0.99481392390004098
aF0.11571857475211562
aF0.5154224979193075
aF0.068793119396264604
aF0.10756249543993626
aF0.046094654792139235
aF0.066600938348859148
aF0.095974040573504282
aF0.16658929042108112
aF0.068318315383817843
aa(lp35
F0.10744713553275946
aF0.43327959581691938
aF0.29720018257098063
aF0.049352376302423756
aF0.79908006244434426
aF0.98288137891667671
aF0.12400977857558085
aF0.72017107025478455
aF0.99113358274726038
aF0.11330008424552056
aF0.52009921274947113
aF0.068793119396264604
aF0.11921778211692333
aF0.074287742224361686
aF0.066216251059687106
aF0.094102837942770384
aF0.12885613022261616
aF0.068318315383817843
aa(lp36
F0.15092059942714253
aF0.44260652718872828
aF0.29801031716008841
aF0.049352376302423756
aF0.74801585124485148
aF0.98288137891667671
aF0.15318879498929724
aF0.69718523102609731
aF0.99339278592425406
aF0.15753409826889203
aF0.54847990097126165
aF0.069387835491261721
aF0.15340240756055332
aF0.10860265691402322
aF0.066425810016263992
aF0.15059306748113221
aF0.17827047037364555
aF0.069525143769472969
aa(lp37
F0.16463694631230158
aF0.41205273719435359
aF0.30058856263796907
aF0.21493020579936828
aF0.74801585124485148
aF0.99418182949519451
aF0.183780330204555
aF0.68771814268887554
aF0.99348846128301471
aF0.15590959715126873
aF0.53951532172269512
aF0.070078419950407062
aF0.15512786529956982
aF0.094016501635248828
aF0.066386274153531169
aF0.15059306748113221
aF0.17827047037364555
aF0.069525143769472969
aa(lp38
F0.11432558844532741
aF0.41180732833384553
aF0.29998184838622449
aF0.17303899910552892
aF0.7905070647209933
aF0.99418182949519451
aF0.10822792034701312
aF0.70591094736893056
aF0.9933954783651755
aF0.12554025807386038
aF0.53877263426953925
aF0.069366107714531916
aF0.11890302626775606
aF0.083341416064671173
aF0.066175586851279569
aF0.082956551146144697
aF0.064088820316626563
aF0.066241916258029693
aa(lp39
F0.1116685413834083
aF0.43774629736884824
aF0.2991726264023124
aF0.17303899910552892
aF0.78835074107643344
aF0.99463651316770196
aF0.10786887369583209
aF0.7149274718019103
aF0.99238666507948581
aF0.11951201691746689
aF0.56934802011403562
aF0.069028159506870967
aF0.11147359670326598
aF0.09955785761849241
aF0.0655312603582551
aF0.11019359505150347
aF0.076554629596120402
aF0.066241916258029693
aa(lp40
F0.1194593681615387
aF0.42280844566845938
aF0.29718766672064917
aF0.18111998063468071
aF0.78835074107643344
aF0.9938913461700879
aF0.11896263697198758
aF0.70428684329833802
aF0.99159821068356735
aF0.12571310459190677
aF0.5154224979193075
aF0.068756923694118219
aF0.11862524821742387
aF0.091965620929755978
aF0.065042715839705154
aF0.11019359505150347
aF0.076554629596120402
aF0.063880486135859435
aa(lp41
F0.11675032859017052
aF0.40224676790618291
aF0.2981963300116523
aF0.18111998063468071
aF0.79944614344319886
aF0.98215466664438522
aF0.09985527096473365
aF0.70428684329833802
aF0.99052975521485975
aF0.11392077165844054
aF0.50902228739724631
aF0.069943921334090289
aF0.11318437796319672
aF0.058993341664060193
aF0.066508726333381285
aF0.1154112495755612
aF0.086053674798487328
aF0.06868961312653285
aa(lp42
F0.11792390809058205
aF0.42494587376664128
aF0.29921817314064042
aF0.13757810580366545
aF0.79944614344319886
aF0.98215466664438522
aF0.096100988337266879
aF0.72155249522592946
aF0.99086459187963083
aF0.11430946174212268
aF0.51747144706912418
aF0.070200865634300225
aF0.11230419682673062
aF0.058666871585431643
aF0.066059977422604291
aF0.1154112495755612
aF0.086053674798487328
aF0.06868961312653285
aa(lp43
F0.10288486858159308
aF0.46655765004702549
aF0.30409962997760043
aF0.048760692581770619
aF0.80097375286245098
aF0.99397030398951225
aF0.072900107141528392
aF0.73773997902908128
aF0.99515605793628192
aF0.12865747334104927
aF0.52251462016120387
aF0.069184243384098773
aF0.10914512082454567
aF0.11974594373519361
aF0.065683548892466165
aF0.10365476842502142
aF0.11284735244794777
aF0.092602827988819275
aa(lp44
F0.084618665088725023
aF0.48670058471800098
aF0.30841924332450266
aF0.048760692581770619
aF0.80097375286245098
aF0.99416592872347187
aF0.068626998814325879
aF0.73773997902908128
aF0.99515605793628192
aF0.098837265649166714
aF0.58770311970567535
aF0.069184243384098773
aF0.10233317568263531
aF0.12406988510665726
aF0.065957811215203638
aF0.09937238447614144
aF0.11284735244794777
aF0.092602827988819275
aaa(lp45
(lp46
F0.12438037472520881
aF0.43160065934260466
aF0.23720773729142697
aF0.21005515672497438
aF0.76524609785066255
aF0.51955608761496097
aF0.12112325576826102
aF0.72834551981103068
aF0.99379217053321878
aF0.12133997104296289
aF0.52215929355991508
aF0.06787174268817249
aF0.12550037168165989
aF0.079938027757087582
aF0.065287983075374728
aF0.11050838824308162
aF0.12549246301915976
aF0.064074510447538952
aa(lp47
F0.13409393722913648
aF0.42648499687787533
aF0.29941872364221478
aF0.24064510548857215
aF0.77729174204581997
aF0.9901546551599113
aF0.12112325576826102
aF0.70714679267380143
aF0.99197345253305858
aF0.12209987051424133
aF0.52648090871248199
aF0.068374053444844041
aF0.11859984116289662
aF0.10073127629172199
aF0.066951527005136111
aF0.15560421828723328
aF0.16528313317729512
aF0.068406452229976974
aa(lp48
F0.12650633890610019
aF0.39706290457549837
aF0.29836206685218808
aF0.20595922065662212
aF0.71737235709138247
aF0.98983622770468482
aF0.093950105719905558
aF0.67069293102180583
aF0.99139925263690132
aF0.12209987051424133
aF0.54361370489780059
aF0.068374053444844041
aF0.11400632629136623
aF0.097884044927132388
aF0.069002704159540643
aF0.15560421828723328
aF0.16528313317729512
aF0.069274120473945211
aa(lp49
F0.11987707845150671
aF0.408254208931361
aF0.29795408414973068
aF0.16258900955815106
aF0.71737235709138247
aF0.98983622770468482
aF0.085002742376572377
aF0.71562607779336596
aF0.99120484172536216
aF0.1024750781390059
aF0.53103985981898905
aF0.067754114756826148
aF0.13247813742228512
aF0.084895955203666051
aF0.066615764953338236
aF0.1399113610801728
aF0.1393565872768136
aF0.069274120473945211
aa(lp50
F0.12618539825187786
aF0.4144345657178462
aF0.29838153486768343
aF0.16258900955815106
aF0.74029866117640319
aF0.99333693401482792
aF0.11925467724070174
aF0.72729933560293658
aF0.99121338604912967
aF0.10935389478489425
aF0.5376198417817285
aF0.068182313611569956
aF0.12966665550706999
aF0.060967609030916976
aF0.066909335137793666
aF0.1399113610801728
aF0.1393565872768136
aF0.066978760418559796
aa(lp51
F0.13281373274358765
aF0.38754391072242739
aF0.29926601896693739
aF0.23599844531369224
aF0.74029866117640319
aF0.99489285936593796
aF0.1444290861753342
aF0.71249101174797114
aF0.99224786438444612
aF0.14196615059782319
aF0.53552523519106898
aF0.068166281930674463
aF0.12913492630280493
aF0.058571336442058947
aF0.067432465667794372
aF0.090926006545538424
aF0.063396995782359605
aF0.064320253099576563
aa(lp52
F0.13374963143648311
aF0.39646939834703887
aF0.29939060942609363
aF0.28455716207920645
aF0.79737518109665051
aF0.99162037794613311
aF0.14811032461223597
aF0.70683796247984076
aF0.99262860690073951
aF0.13079804828051861
aF0.49401095151603691
aF0.06947224198419627
aF0.12856972935471142
aF0.05320831095531732
aF0.067386404784119336
aF0.096414913431686289
aF0.076353392515326315
aF0.065386899663754466
aa(lp53
F0.09976920140574401
aF0.4034941943985545
aF0.29758512149785998
aF0.12652470075899211
aF0.76610405544951266
aF0.98864376297513068
aF0.069811616583798114
aF0.70300627461665499
aF0.99005056785504908
aF0.10429564359022912
aF0.50895626318561515
aF0.068756923694118219
aF0.10754263281320889
aF0.059905377030149323
aF0.067500340450149077
aF0.096414913431686289
aF0.12261248904685305
aF0.06819195552206167
aa(lp54
F0.089336293687698201
aF0.41632093681602816
aF0.29688702337739653
aF0.12652470075899211
aF0.76610405544951266
aF0.98704735829009005
aF0.055528081310145472
aF0.71495826599641232
aF0.98713875774841486
aF0.086943569922266914
aF0.5205905067011054
aF0.068756923694118219
aF0.10456928657545742
aF0.087287875252666694
aF0.069084177470427194
aF0.092063731187844278
aF0.12261248904685305
aF0.06819195552206167
aa(lp55
F0.11335370133652849
aF0.40333440205986348
aF0.2986788125841488
aF0.22894909038269706
aF0.74959147668493931
aF0.98704735829009005
aF0.083875909415822902
aF0.70456959635005201
aF0.99226893048069953
aF0.10854355262359243
aF0.49110084784447572
aF0.068364675119836682
aF0.10642589365858723
aF0.1030120400858508
aF0.069477908543373768
aF0.14736088418685664
aF0.14711767991251071
aF0.067830628255207068
aa(lp56
F0.11021124058724137
aF0.39438345243637724
aF0.29869130460528903
aF0.21628239529175788
aF0.74959147668493931
aF0.99055719235573447
aF0.081088601732360516
aF0.68583831573254772
aF0.99226893048069953
aF0.090160110633528287
aF0.53370712028652245
aF0.068364675119836682
aF0.11281385922932383
aF0.062657015551591561
aF0.066548535089406155
aF0.14736088418685664
aF0.14711767991251071
aF0.066835661678152788
aa(lp57
F0.099156096807442987
aF0.40333154458794473
aF0.29908522718003677
aF0.16584929954527214
aF0.77162603519183048
aF0.98775363979505293
aF0.082581267966693239
aF0.72547534992924323
aF0.99428591194513638
aF0.094281419059928581
aF0.51715987064631019
aF0.068671336303513797
aF0.1188592545424754
aF0.049199676717926175
aF0.067222897577315477
aF0.082134286151377855
aF0.077198135390786737
aF0.06564101920503769
aa(lp58
F0.1095747453736801
aF0.42148397376061475
aF0.30089274577401404
aF0.16584929954527214
aF0.78789182273990377
aF0.98775363979505293
aF0.098771139055319396
aF0.72547534992924323
aF0.99428591194513638
aF0.10941252247335957
aF0.51626761624697204
aF0.068893136510301711
aF0.12346503706859493
aF0.072907833614345968
aF0.069762425035113054
aF0.091096697800577636
aF0.077198135390786737
aF0.070332239558035706
aa(lp59
F0.10276830899844654
aF0.40720916765984777
aF0.30051011586822535
aF0.15810054657775371
aF0.78789182273990377
aF0.98838909022015831
aF0.084474219608662471
aF0.72057680022632931
aF0.99174238328704367
aF0.094601892185542782
aF0.55377343147116209
aF0.068793839410590502
aF0.12276280021348687
aF0.073769973080477003
aF0.067272260848944887
aF0.091096697800577636
aF0.05712015132468283
aF0.070332239558035706
aa(lp60
F0.11273692586465321
aF0.42298833974014094
aF0.29925191605803675
aF0.15810054657775371
aF0.75298710379409584
aF0.99511763715060142
aF0.072159502090700101
aF0.68635173214792089
aF0.99260826026796656
aF0.11544377028963944
aF0.5154224979193075
aF0.068756923694118219
aF0.12107445611663237
aF0.13380211358966018
aF0.065821949577140063
aF0.14519494631294927
aF0.13210313303410678
aF0.067675439123220354
aa(lp61
F0.14153213152000094
aF0.43152151078549794
aF0.30005764500486004
aF0.16614614605505318
aF0.75298710379409584
aF0.99511763715060142
aF0.1509378713992344
aF0.69101068058926896
aF0.99285695969709187
aF0.13338015513751128
aF0.49459867880428393
aF0.06812709866667907
aF0.13183012087583237
aF0.16302197500709029
aF0.065707303898753136
aF0.14519494631294927
aF0.13210313303410678
aF0.068688958840032066
aa(lp62
F0.14896924786139226
aF0.3555677483980404
aF0.30172102957293728
aF0.35365110243655173
aF0.7982742938780506
aF0.99556911141686644
aF0.16573961699360604
aF0.68990547288677584
aF0.99237869245391963
aF0.14240031744533332
aF0.45161171546859535
aF0.06869379294627391
aF0.13183012087583237
aF0
aF0.067750347293868099
aF0.090401222662210123
aF0.038173262402601445
aF0.068688958840032066
aaa(lp63
(lp64
F0.075907104727607325
aF0.43246592986451748
aF0.29699855476284909
aF0.025146852356711259
aF0.79585346299386517
aF0.99044430917560211
aF0.070382184641827689
aF0.72199536564295097
aF0.99259255182882178
aF0.090266016799688834
aF0.5154224979193075
aF0.068756923694118219
aF0.089840218470524813
aF0.065505857743791474
aF0.064789887146490269
aF0.07655579959693834
aF0.12683295087670318
aF0.062736018224101839
aa(lp65
F0.10380833148335487
aF0.40358405974586564
aF0.29832709391109896
aF0.22665620160489258
aF0.80071595598541379
aF0.99183002382362651
aF0.096816932696009217
aF0.70897328731084741
aF0.9921820697325473
aF0.092410723620555427
aF0.48705768162817797
aF0.068300784493819669
aF0.10511082524620852
aF0.059170241463170181
aF0.066483211473469861
aF0.089125235286698856
aF0.071759895587536343
aF0.066777515476895768
aa(lp66
F0.10400878642951393
aF0.39042832756643203
aF0.29883533581452421
aF0.22665620160489258
aF0.76802452078434968
aF0.99183002382362651
aF0.090435255821827404
aF0.70732615166514623
aF0.99280044136687218
aF0.091760028187068951
aF0.47773828241516841
aF0.068040324436411143
aF0.099238380653795533
aF0.022547854382783283
aF0.064961420541919099
aF0.1026977379777696
aF0.098027350921932419
aF0.069589710466889429
aa(lp67
F0.12189427318659009
aF0.40513771589867953
aF0.29756069510646616
aF0.1060169729421316
aF0.74885282067934522
aF0.98648499153491076
aF0.10527844157083557
aF0.69628795244990815
aF0.9898304779075795
aF0.11698520679488407
aF0.51137583142183252
aF0.068756923694118219
aF0.11566149391804442
aF0.061493624469907276
aF0.067142245119725455
aF0.14572897738976912
aF0.10666503213356084
aF0.073055883084118617
aa(lp68
F0.1349043335653744
aF0.42358416345004485
aF0.29717008361718905
aF0.1060169729421316
aF0.74031093729261832
aF0.98648499153491076
aF0.1162215632258555
aF0.7054363824992681
aF0.98997242862756085
aF0.12954913169259935
aF0.5555846307468979
aF0.068839720139180438
aF0.14163218701240898
aF0.10854021045224733
aF0.067582876931220809
aF0.14572897738976912
aF0.10666503213356084
aF0.073055883084118617
aa(lp69
F0.15456397454633003
aF0.40801968045159764
aF0.29979016166995648
aF0.23228394805342611
aF0.74031093729261832
aF0.99471384026990828
aF0.16292991990244268
aF0.71432988767450212
aF0.99191538338284935
aF0.15599179923935019
aF0.55385994676247619
aF0.069732953444369319
aF0.14283765610450819
aF0.079703892078644034
aF0.067729754201719256
aF0.12542631915333741
aF0.090288603935992182
aF0.065247619028721796
aa(lp70
F0.14142029742142737
aF0.40225785891393556
aF0.30019392420637575
aF0.16465036044700804
aF0.76720777908638416
aF0.98587649743973915
aF0.16099617667891755
aF0.72024324078194113
aF0.99149115618501849
aF0.14705263007201086
aF0.52032629737304181
aF0.069613776307255695
aF0.13635608103432759
aF0.051047433043260752
aF0.067925786151966164
aF0.12453473418613939
aF0.069814020960334525
aF0.06892583192631728
aa(lp71
F0.10849054965547851
aF0.41606816112479739
aF0.30042392947918717
aF0.16465036044700804
aF0.76720777908638416
aF0.98587649743973915
aF0.10705231853964181
aF0.7211750680190816
aF0.99148152529989519
aF0.1143235161074929
aF0.5154224979193075
aF0.068756923694118219
aF0.1130350687140024
aF0.050910770371958819
aF0.069417205614945271
aF0.093626793733253055
aF0.074001637482221369
aF0.07082401334794175
aa(lp72
F0.09773469618408713
aF0.43420965332744738
aF0.29688671665128624
aF0.17938437400117654
aF0.80582049006179024
aF0.98475879639809583
aF0.083066909896476304
aF0.71124769803079713
aF0.98881498881422714
aF0.10201941639251262
aF0.5154224979193075
aF0.068756923694118219
aF0.10721775737215855
aF0.12021779896692901
aF0.066948933111348238
aF0.10161810759589179
aF0.074001637482221369
aF0.07082401334794175
aa(lp73
F0.092123529999244655
aF0.42370292439373752
aF0.29668346120775402
aF0.17938437400117654
aF0.80299362755424042
aF0.98475879639809583
aF0.094591672270590399
aF0.73397284533789597
aF0.99360841365211261
aF0.089391482199607727
aF0.5154224979193075
aF0.068756923694118219
aF0.096306917112439466
aF0.041455127232512247
aF0.065576225362235743
aF0.10161810759589179
aF0.068492956139767386
aF0.066104115356318424
aa(lp74
F0.11051700906082269
aF0.41851849192816837
aF0.29776393548587243
aF0.18420978823539186
aF0.77976175727405206
aF0.98975060599063414
aF0.1125923785196348
aF0.73335869429368861
aF0.99439973345002675
aF0.11112419379549791
aF0.51539214008761969
aF0.068756923694118219
aF0.11289221240387665
aF0.041046629793291239
aF0.065576225362235743
aF0.10619724534004171
aF0.12437818443377756
aF0.066104115356318424
aa(lp75
F0.13149110356314075
aF0.40983619587637171
aF0.29677650482749912
aF0.20927585980398197
aF0.77036015948723635
aF0.98975060599063414
aF0.11142636261162572
aF0.7003465925684369
aF0.99267091921974548
aF0.14296688888265841
aF0.51435142660396571
aF0.068756923694118219
aF0.13427478986501498
aF0.056848136377301191
aF0.066173009945029518
aF0.10721421881753324
aF0.12437818443377756
aF0.064452734465193659
aa(lp76
F0.12537042773994872
aF0.41831859174939873
aF0.29756312645291999
aF0.048592860163508028
aF0.77036015948723635
aF0.99264421778720835
aF0.1181173133349053
aF0.71392142635850508
aF0.99168817762283112
aF0.14563095189790898
aF0.5154224979193075
aF0.068756923694118219
aF0.13418110495862395
aF0.047739749533454334
aF0.065796757360958011
aF0.10721421881753324
aF0.1161942421046024
aF0.064452734465193659
aa(lp77
F0.11019977358349363
aF0.46082725027599514
aF0.296731473287143
aF0.048592860163508028
aF0.81619552809255613
aF0.99354391500519035
aF0.14810676413996091
aF0.72584688748410575
aF0.99242482417483302
aF0.13747365053068439
aF0.52574500674750491
aF0.068756923694118219
aF0.1212232328813474
aF0.091641467806287819
aF0.065078643951547596
aF0.081406874347143249
aF0.1161942421046024
aF0.061651742740520786
aaa(lp78
(lp79
F0.09644811061823029
aF0.44013076512418792
aF0.34852361869412046
aF0
aF0.76068246475330614
aF0.99175350249952321
aF0.075769297102502908
aF0.69728510477400751
aF0.99260673768214636
aF0.097216249041354466
aF0.52657111611724894
aF0.068139300259009328
aF0.11785935943883546
aF0.1713000546552205
aF0.06431004076116803
aF0.12007099990539954
aF0.11881391525187891
aF0.41231167755784853
aa(lp80
F0.09249869396075143
aF0.46936570722982929
aF0.37240565624026062
aF0
aF0.79167677790352409
aF0.98340243949211226
aF0.056126787808735756
aF0.73773997902908128
aF0.99174675059776951
aF0.10124724627810118
aF0.53320555671681402
aF0.06813453194558404
aF0.11265828474416431
aF0.16194720497280982
aF0.064989625283874072
aF0.1010712010479633
aF0.11999501159733512
aF0.63548182161813549
aa(lp81
F0.10997032902944952
aF0.45063300342278945
aF0.37836025451665878
aF0.095032231150716462
aF0.77220153962592197
aF0.98340243949211226
aF0.090205821810567188
aF0.72256233953964522
aF0.99393200723557817
aF0.10435817382209382
aF0.51556940000685747
aF0.068756923694118219
aF0.10617249303429893
aF0.14912771359980539
aF0.065682769952910322
aF0.11458150892409097
aF0.11999501159733512
aF0.63548182161813549
aa(lp82
F0.13690635216876046
aF0.41736809585078843
aF0.29796058109535317
aF0.19628834599216416
aF0.75406432413310798
aF0.99243291369745168
aF0.11985802822518379
aF0.72193350850322413
aF0.99181216555874829
aF0.13445702489845263
aF0.53143563012395045
aF0.068756923694118219
aF0.13563104088671468
aF0.065394309296725239
aF0.065026864722494984
aF0.11458150892409097
aF0.12727305220021937
aF0.067109581268538998
aa(lp83
F0.11688159731883631
aF0.43130947038945799
aF0.29760826644612726
aF0.146237613708815
aF0.75406432413310798
aF0.99174698249656679
aF0.089612174444867437
aF0.72588512613468847
aF0.99101483950879699
aF0.12350454063362669
aF0.53015843087991632
aF0.068584510362914478
aF0.1314073138626593
aF0.071463464771906002
aF0.066191791151083312
aF0.11203390771932364
aF0.12727305220021937
aF0.067109581268538998
aa(lp84
F0.11198941450978241
aF0.40076237448306268
aF0.29929724877559588
aF0.146237613708815
aF0.76963743103721893
aF0.99174698249656679
aF0.085205536545611443
aF0.70690831707175217
aF0.99098248946665402
aF0.11718210780297091
aF0.5154224979193075
aF0.068680779256726054
aF0.12807550669256823
aF0.06094457536750679
aF0.068733053107017578
aF0.093225472976584095
aF0.12192839351373265
aF0.068233339043848928
aa(lp85
F0.16230083887350788
aF0.41906606559713611
aF0.2998287511798981
aF0.22888410050323668
aF0.74537150535454089
aF0.99130119383314463
aF0.15875892018284207
aF0.72287221065023632
aF0.98994371815293691
aF0.16406746499038322
aF0.51789583788057691
aF0.069856391202082424
aF0.14320818822166329
aF0.080884416397408676
aF0.06864556887463992
aF0.14933561082385841
aF0.14325880929399196
aF0.068233339043848928
aa(lp86
F0.15995112060055877
aF0.42604170667087388
aF0.30013069169077861
aF0.20562660027664609
aF0.74537150535454089
aF0.99130119383314463
aF0.15602326474320513
aF0.72753099429776336
aF0.99172473737029032
aF0.16157949720171089
aF0.54085137534004279
aF0.06945920750795849
aF0.15974273906215164
aF0.10630351658142718
aF0.068604227718645522
aF0.14933561082385841
aF0.14325880929399196
aF0.067476193873116527
aa(lp87
F0.12112301381296171
aF0.42958333570380214
aF0.29998212094137217
aF0.20475912090807433
aF0.75727541875158855
aF0.99466542937234848
aF0.10601750049143505
aF0.73773997902908128
aF0.9936484624718388
aF0.11660385322890378
aF0.55314065969510273
aF0.068756923694118219
aF0.1420024592661055
aF0.10042066146485842
aF0.066225586190587424
aF0.097611297094528982
aF0.076422155746533882
aF0.067476193873116527
aa(lp88
F0.094651628499994853
aF0.45549650972851918
aF0.29789860586396805
aF0.20475912090807433
aF0.8035801396967901
aF0.99466542937234848
aF0.049032086450289614
aF0.73773997902908128
aF0.99403261977871893
aF0.078741664937503883
aF0.54041047770416484
aF0.068386497342190947
aF0.11002444297995051
aF0.11836146284810264
aF0.063970248499815016
aF0.094761272682974268
aF0.076422155746533882
aF0.063603860567967366
aaa(lp89
(lp90
F0.11045547205351587
aF0.43658363736944644
aF0.31569538308716411
aF0.085196809005580867
aF0.78308679409502957
aF0.99173497336777339
aF0.12182224562595587
aF0.73136150806560019
aF0.99329455907043973
aF0.12397558728499568
aF0.55038320631190663
aF0.068756923694118219
aF0.1171099252431641
aF0.093176375025219332
aF0.066381183499335972
aF0.096339229915067159
aF0.11996980547808618
aF0.16960942315000449
aa(lp91
F0.13812416780317527
aF0.40743239801682224
aF0.29820000240410516
aF0.29212674199291888
aF0.78308679409502957
aF0.99173497336777339
aF0.13804219059696263
aF0.7126133506326251
aF0.9918345080860631
aF0.1463352841310952
aF0.53633327776551976
aF0.068207010073693466
aF0.13405196799480931
aF0.071724883415551624
aF0.065247597610249411
aF0.096339229915067159
aF0.049846531419359331
aF0.065811168545082566
aa(lp92
F0.13561726386151823
aF0.39991980058294996
aF0.29773906946505579
aF0.29212674199291888
aF0.76677609518465439
aF0.98556047319262619
aF0.11849049079540028
aF0.7126133506326251
aF0.99067992790843118
aF0.15096714559027252
aF0.51969270743948881
aF0.068169230040070444
aF0.13405196799480931
aF0.086402565976224907
aF0.065247597610249411
aF0.11119263400077758
aF0.048737613871726593
aF0.06932828562243544
aa(lp93
F0.13195821956871029
aF0.41100162267578827
aF0.29921193230257354
aF0.17237385804380112
aF0.76677609518465439
aF0.98556047319262619
aF0.11849049079540028
aF0.69986496765777062
aF0.99366886650843467
aF0.138760117557163
aF0.55741915953693844
aF0.068857646740404996
aF0.12767442778321172
aF0.099134915525359898
aF0.065505014572943956
aF0.11119263400077758
aF0.048737613871726593
aF0.06932828562243544
aa(lp94
F0.11280283568199322
aF0.43465310049005856
aF0.3020918865646765
aF0.17237385804380112
aF0.76855853216409542
aF0.99362132107688228
aF0.090679893053397853
aF0.7183644888381775
aF0.99515605793628192
aF0.11713006893643212
aF0.53595491042824162
aF0.070053858835528726
aF0.12312136877557306
aF0.096893138436149967
aF0.066577189678279233
aF0.10272911696669548
aF0.11207706088409915
aF0.070743662721685474
aa(lp95
F0.10299259286601993
aF0.42424389446408223
aF0.30063573236233121
aF0.18258304131710326
aF0.76855853216409542
aF0.99362132107688228
aF0.096688835232474846
aF0.7155213588533802
aF0.99202064329375139
aF0.093658075425286716
aF0.51201596233663893
aF0.070143543177115283
aF0.10176524066000145
aF0.0901678071685202
aF0.066792532827310375
aF0.096581363780637253
aF0.11207706088409915
aF0.070743662721685474
aa(lp96
F0.09853717214475026
aF0.39824859176414124
aF0.29770094252774432
aF0.23968871395063818
aF0.76764144115434041
aF0.99201892412361548
aF0.089487094510665388
aF0.70917097725866085
aF0.99155603314657403
aF0.087759917454538997
aF0.51198116644161273
aF0.066311379567099552
aF0.085175227260829794
aF0.060625221049002725
aF0.0672289079838925
aF0.090824663879805673
aF0.070373205187791776
aF0.066404609363001646
aa(lp97
F0.1153866345325814
aF0.40819748209748186
aF0.2995036807795064
aF0.23959785995521363
aF0.76764144115434041
aF0.99201892412361548
aF0.083806202394904494
aF0.70361964615921724
aF0.9907819637101315
aF0.098699022854704235
aF0.53426246424480062
aF0.069855016743504486
aF0.13460734413507147
aF0.049054457195132045
aF0.067576024453531225
aF0.11681220719459706
aF0.11767785751860489
aF0.072423926081588152
aa(lp98
F0.14709108787412994
aF0.42331858328833949
aF0.30210458528816514
aF0.23959785995521363
aF0.79305731474969687
aF0.99426165262547983
aF0.13000468728846423
aF0.72252644741634597
aF0.99150003372298101
aF0.15533571317387324
aF0.53132008049329638
aF0.070879644803709091
aF0.14942918168476546
aF0.04480585842085176
aF0.067343664970542866
aF0.11681220719459706
aF0.11767785751860489
aF0.072423926081588152
aaa(lp99
(lp100
F0.14066750478443263
aF0.43792611630175315
aF0.25750569687469338
aF0.2046260715526346
aF0.77793290165316442
aF0.70267811238809563
aF0.12215162388178394
aF0.70904284573274523
aF0.98798474661472346
aF0.15581655212164514
aF0.51471016307343986
aF0.068441929895563469
aF0.14453084655155546
aF0.072739887153331503
aF0.066319516884719723
aF0.104899959313946
aF0.19044117774166419
aF0.071943821640664901
aa(lp101
F0.12019363917201885
aF0.41692872937038639
aF0.2989609612629649
aF0.15139059144385603
aF0.77793290165316442
aF0.98887441082164207
aF0.12516429133425197
aF0.70727093128890461
aF0.98919797580423718
aF0.12920369703316958
aF0.5154224979193075
aF0.068756923694118219
aF0.12810722641830899
aF0.049096109583524374
aF0.069521032553911483
aF0.10156310079819189
aF0.10375298123721756
aF0.071943821640664901
aa(lp102
F0.14337423674398653
aF0.41823342116461198
aF0.29876295573236938
aF0.15139059144385603
aF0.74909826015201897
aF0.99060739892812799
aF0.13966581503083139
aF0.71046970868585713
aF0.99237184267605827
aF0.14437273227692521
aF0.51667107044158023
aF0.068628659421815327
aF0.14014157774058891
aF0.099780521865865127
aF0.065699114557818822
aF0.14080039988641274
aF0.10375298123721756
aF0.067874401286044314
aa(lp103
F0.1467789753265859
aF0.39874054585556756
aF0.30015683218245431
aF0.21675105082998905
aF0.74909826015201897
aF0.99060739892812799
aF0.15125237180418369
aF0.71442428211926201
aF0.99295164233912692
aF0.13623205244888342
aF0.50369493395818277
aF0.068717395200801834
aF0.11731461991095624
aF0.089245776788012154
aF0.067619407770390161
aF0.14080039988641274
aF0.090652290762773646
aF0.067874401286044314
aa(lp104
F0.11987500464719066
aF0.4183410032605473
aF0.30139631238272063
aF0.06095648550035862
aF0.72779653225358998
aF0.99346657280931727
aF0.11578114099500689
aF0.70064062040239772
aF0.99347927179323636
aF0.11480814726537479
aF0.50244636143591004
aF0.069627402832025995
aF0.11542176849324592
aF0.088785079465144259
aF0.067056771607280324
aF0.15207421941998894
aF0.2091082773129431
aF0.069042338100619133
aa(lp105
F0.099523697123776136
aF0.4351171982168856
aF0.29912220452724336
aF0.06095648550035862
aF0.72779653225358998
aF0.99047274842526423
aF0.071560760733696216
aF0.7270730861355984
aF0.99177475320480568
aF0.076469046993770454
aF0.5154224979193075
aF0.068756923694118219
aF0.096153106309965181
aF0.064427115735872925
aF0.066118310118489856
aF0.15207421941998894
aF0.2091082773129431
aF0.069042338100619133
aa(lp106
F0.10752157480500966
aF0.41313050978219229
aF0.29636280720272284
aF0.18196039267126241
aF0.77451287425744719
aF0.99047274842526423
aF0.084330862984579619
aF0.72957195867853475
aF0.99097617831239559
aF0.092376260129714463
aF0.52160024155785278
aF0.068359550294596866
aF0.11121438793759403
aF0.041196139466911572
aF0.06609174738717194
aF0.098661153828949327
aF0.086424876451004801
aF0.065098957219550668
aa(lp107
F0.12035091838912752
aF0.39958581546528144
aF0.29915700310212101
aF0.23344769760038239
aF0.76688572825520485
aF0.98101433236466484
aF0.093337053829171318
aF0.71910695904858968
aF0.98922764381982198
aF0.1113637646438833
aF0.53253659062597991
aF0.06923901452165579
aF0.13557585097654265
aF0.061347327433797734
aF0.067167398573902651
aF0.1023487765477531
aF0.069433849117759391
aF0.078697728439352369
aa(lp108
F0.11764920832626126
aF0.40661498287234688
aF0.29947076835638409
aF0.2186715889595337
aF0.76688572825520485
aF0.98101433236466484
aF0.090628696986675222
aF0.70365317122978399
aF0.98987874939661569
aF0.10492928106436127
aF0.53253659062597991
aF0.069099199390758315
aF0.13236666097110775
aF0.071321288394824739
aF0.066587774586023718
aF0.1023487765477531
aF0.068129804013774706
aF0.078697728439352369
aa(lp109
F0.11803935594710165
aF0.41138835157196035
aF0.29871808888475537
aF0.13621716248613372
aF0.78141102988739886
aF0.99447679101951336
aF0.066767751452429386
aF0.7089376267250489
aF0.99375175927394443
aF0.14642989425379521
aF0.51737225555321231
aF0.068943562272790582
aF0.13236666097110775
aF0.067589994159556521
aF0.065837825231640168
aF0.09825876913350895
aF0.068129804013774706
aF0.062203384244022907
aa(lp110
F0.064696991482870017
aF0.39467981627065368
aF0.30109921331426076
aF0.13621716248613372
aF0.82900687889385671
aF0.99999999999999989
aF0.031958632828112205
aF0.73480844599948891
aF0.99564518454446149
aF0.064243981161595701
aF0.51181143805719598
aF0.069751746424073544
aF0.082988026804943632
aF0.0082259320375928785
aF0.065358597203393293
aF0.068994662079432875
aF0
aF0.061587120000796372
aaa(lp111
(lp112
F0.11217931639235669
aF0.42556363725742463
aF0.29577108504342281
aF0.23200304809177971
aF0.76764957205882478
aF0.97462593484413873
aF0.10266404713408556
aF0.71149581383047289
aF0.98991513349709392
aF0.10031916348822655
aF0.53567098585907857
aF0.070359401834610757
aF0.11492820082007457
aF0.067123110188762658
aF0.068298283078894961
aF0.10689108105983278
aF0.16648531386936524
aF0.066416825293770576
aa(lp113
F0.12448055628862582
aF0.39969869732813879
aF0.2988141788861346
aF0.210260036992379
aF0.71670748826953123
aF0.98524004150582778
aF0.096356282757108336
aF0.71696627162914972
aF0.9928462261444666
aF0.10369806231264479
aF0.52394418109446006
aF0.068756923694118219
aF0.12613225930743496
aF0.063221156163066478
aF0.066137838752728148
aF0.14682687418107049
aF0.094694372144078581
aF0.067817946433392617
aa(lp114
F0.13387673540141959
aF0.41706505634305735
aF0.29688276220584925
aF0.13124121142505082
aF0.71670748826953123
aF0.98027604231794763
aF0.13841032398258682
aF0.71076564473036896
aF0.99149240058187071
aF0.13424501262814614
aF0.53234003831457144
aF0.068610555809991702
aF0.13724032002787837
aF0.10301088211199085
aF0.066977700684507147
aF0.14682687418107049
aF0.094694372144078581
aF0.071112320635613818
aa(lp115
F0.11208182662333134
aF0.41442053767781911
aF0.29811596320907735
aF0.13124121142505082
aF0.78064567500848325
aF0.98027604231794763
aF0.098747351590415644
aF0.69731980698590978
aF0.99056463825835117
aF0.11567153417871594
aF0.52552268891101372
aF0.068756923694118219
aF0.11705500379365111
aF0.11405085830695824
aF0.06708328315197995
aF0.092469254976542459
aF0.073837188903747644
aF0.077064297540306678
aa(lp116
F0.13566358497423658
aF0.40991366727800049
aF0.29931206719017506
aF0.21799822561150797
aF0.78064567500848325
aF0.98791665827332065
aF0.098747351590415644
aF0.70543388089145842
aF0.99302093594811613
aF0.12785209804259368
aF0.50347546927981701
aF0.069527123405909386
aF0.13820519762774733
aF0.045909237950463325
aF0.065173602189752322
aF0.12305383521145227
aF0.092621707476552503
aF0.077064297540306678
aa(lp117
F0.14604863544269175
aF0.40232353134488641
aF0.29980697364623099
aF0.24251808054770718
aF0.77710089844905017
aF0.99156725272229485
aF0.12291853715429749
aF0.70596000235325118
aF0.99333786259127499
aF0.13662109947716439
aF0.50347546927981701
aF0.069600805322494005
aF0.16047783708089722
aF0.036537483854603758
aF0.066872374507512808
aF0.12305383521145227
aF0.092621707476552503
aF0.065979792899964321
aa(lp118
F0.11137457905822744
aF0.39127622519052596
aF0.30020325858771862
aF0.15154964850022723
aF0.7710536838454054
aF0.99156725272229485
aF0.10647831992393283
aF0.68992238926700877
aF0.99183852116542193
aF0.10144373763552055
aF0.49489693910027421
aF0.069580244494786461
aF0.11273769711035189
aF0.058055913316777133
aF0.067579434196722576
aF0.096073314814278193
aF0.1211568673501288
aF0.069971079086334556
aa(lp119
F0.11128931038428073
aF0.43280939634494725
aF0.29979981224229502
aF0.13507024737415066
aF0.7710536838454054
aF0.99263787164106332
aF0.075553936059026883
aF0.71448518960537255
aF0.99146396906437073
aF0.1293276402603436
aF0.5154224979193075
aF0.068756923694118219
aF0.12968917668410576
aF0.096177122998455294
aF0.067392072428725039
aF0.096182622177193533
aF0.12958400371303957
aF0.069971079086334556
aa(lp120
F0.11329888239941739
aF0.43668175520242192
aF0.29737940607505847
aF0.066252506075504952
aF0.79503496747293889
aF0.98956827469718267
aF0.12493892198507553
aF0.71448518960537255
aF0.99321026804947488
aF0.12953171639746869
aF0.5154224979193075
aF0.068730199430415861
aF0.12423109087581963
aF0.077435934061138953
aF0.065399671985892777
aF0.096182622177193533
aF0.12958400371303957
aF0.064606355775889385
aa(lp121
F0.11398500359468587
aF0.41608738484306645
aF0.29769433956695773
aF0.066252506075504952
aF0.78870865116595346
aF0.98956827469718267
aF0.10000052452633276
aF0.69942805029418142
aF0.99282116721593439
aF0.13835497035833755
aF0.52034523838353863
aF0.068588955657239534
aF0.12673224806786076
aF0.054572577221158713
aF0.065174073115276857
aF0.081274074866672236
aF0.12054981423274716
aF0.067135360715265394
aa(lp122
F0.12347059229937569
aF0.37435885780334871
aF0.30012027299942012
aF0.27391192426161859
aF0.78870865116595346
aF0.99220666373399602
aF0.091802237879847703
aF0.68448760508380968
aF0.9906042538106703
aF0.15463931000225795
aF0.52128965477593203
aF0.068447711884063206
aF0.12577035929418692
aF0.015697449522011516
aF0.071043254324547014
aF0.077598395648713486
aF0.050589636185858426
aF0.067135360715265394
aaa(lp123
(lp124
F0.11003812593719374
aF0.42601565992511026
aF0.26416046223795359
aF0.14042103785077079
aF0.76493235786623615
aF0.74470931798685291
aF0.1020099087020778
aF0.70645606687037288
aF0.99146257346294253
aF0.10172714159441094
aF0.51456344598001025
aF0.068746327415614247
aF0.1224465451181655
aF0.10139838789094414
aF0.067178917449577949
aF0.10996362271422466
aF0.15195824106265157
aF0.066346731403096285
aa(lp125
F0.089770407156478424
aF0.42595947187141364
aF0.29942531984154397
aF0.035230141787311819
aF0.76494343821108379
aF0.9927743539387438
aF0.04721894022976672
aF0.72696171068341264
aF0.993107364569352
aF0.092093746757577435
aF0.5154224979193075
aF0.068756923694118219
aF0.11379674878745738
aF0.10164538789564462
aF0.067416451661610255
aF0.089554301535952147
aF0.07172310247820185
aF0.067660835789714976
aa(lp126
F0.082761684198767796
aF0.42725429265717624
aF0.29885055044129966
aF0.035230141787311819
aF0.76494343821108379
aF0.9927743539387438
aF0.00097078388942278826
aF0.73546036388139913
aF0.99337486945616638
aF0.087015406297902234
aF0.5154224979193075
aF0.068756923694118219
aF0.11058775284687394
aF0.088841488917977454
aF0.065427760961526527
aF0.089554301535952147
aF0.106818846977228
aF0.067660835789714976
aa(lp127
F0.11127728285946127
aF0.43105165936339973
aF0.2994525046860792
aF0.087250385837673708
aF0.78939250113703674
aF0.99315416716283988
aF0.11407318498474586
aF0.70144315090394238
aF0.99382488570155014
aF0.128751750186474
aF0.51957694342110172
aF0.068756923694118219
aF0.11834329331057744
aF0.047823776120548861
aF0.065444208897639564
aF0.11238293511220335
aF0.1667415113370479
aF0.067514150718425453
aa(lp128
F0.12828114124217543
aF0.41347577324410478
aF0.29957040091991266
aF0.087250385837673708
aF0.7708853822198094
aF0.99162102292838483
aF0.13097027252610219
aF0.69693955383999262
aF0.99083142107010969
aF0.129176210549931
aF0.50719899077306529
aF0.069389721859733813
aF0.1357802212650023
aF0.047823776120548861
aF0.068202649123323217
aF0.11829193000696137
aF0.1667415113370479
aF0.067516732253318154
aa(lp129
F0.11474018311312791
aF0.40727772076933982
aF0.2987883855657979
aF0.1468597665232671
aF0.7708853822198094
aF0.99162102292838483
aF0.092758651234527201
aF0.70034420694148947
aF0.98956321270897829
aF0.10573581931391403
aF0.50719899077306529
aF0.069449229726729136
aF0.13135613243357694
aF0.058087907085647192
aF0.0675119342962653
aF0.11829193000696137
aF0.12458786624758739
aF0.067516732253318154
aa(lp130
F0.10553200023367439
aF0.45062736132810766
aF0.29951187355073888
aF0.11203604996225246
aF0.79979391466161243
aF0.99155020385464787
aF0.069706249200986337
aF0.72986795535849847
aF0.99192123486975414
aF0.11569024433494039
aF0.53971831429924555
aF0.068756923694118219
aF0.12951351480778842
aF0.086461471497179879
aF0.065839231243435437
aF0.092889012796208148
aF0.10113373731585107
aF0.069413680796189606
aa(lp131
F0.11879918901725685
aF0.42908033811259055
aF0.29853926059814551
aF0.11203604996225246
aF0.7567747687687737
aF0.99155020385464787
aF0.10464220049292736
aF0.6946031079960675
aF0.99179351738341592
aF0.1223518771640804
aF0.54243116230400201
aF0.068002065222116895
aF0.12889357278155966
aF0.13143799043384602
aF0.06696109931416
aF0.13814774917904191
aF0.10113373731585107
aF0.069413680796189606
aa(lp132
F0.12011586000372872
aF0.41249637541851814
aF0.29891971285536389
aF0.17926159074952178
aF0.7567747687687737
aF0.99069715630640409
aF0.093797324846493835
aF0.70233246189191079
aF0.99075774544368689
aF0.11278991860872097
aF0.52892683011165476
aF0.068676800861726672
aF0.11651162952530983
aF0.10157042344641878
aF0.068557533676186083
aF0.13814774917904191
aF0.087646922512649827
aF0.069728374478639055
aa(lp133
F0.11169305443907716
aF0.42926003421211023
aF0.30083022232068729
aF0.14643534059242511
aF0.74560302947719381
aF0.99069715630640409
aF0.067674702717609586
aF0.71674613625263894
aF0.9939011006549906
aF0.10027675289022887
aF0.5154224979193075
aF0.069042540286734469
aF0.1246914972622484
aF0.079338950515096998
aF0.069091170042213879
aF0.11886192414764543
aF0.1046883310880304
aF0.069728374478639055
aa(lp134
F0.12005842314142244
aF0.41811066951859904
aF0.30048389201704684
aF0.14643534059242511
aF0.74560302947719381
aF0.99746631802246866
aF0.10209957162754779
aF0.70658536463266386
aF0.99419089598101018
aF0.12448150292423667
aF0.5154224979193075
aF0.069112385336058749
aF0.13788217040743195
aF0.077479260497882979
aF0.06518120287145418
aF0.11234737381540083
aF0.1046883310880304
aF0.065410561795315986
aa(lp135
F0.1261007356193003
aF0.41683892659518212
aF0.2997744337162051
aF0.20155778355310672
aF0.80826160674919811
aF0.99580199271336156
aF0.13604778248567659
aF0.70658536463266386
aF0.99419089598101018
aF0.13176620580652626
aF0.53223310197607065
aF0.069112385336058749
aF0.1239038503967001
aF0.060739218155341931
aF0.065003110377380907
aF0.095682137518730281
aF0.07401674915500564
aF0.066337538278867181
aa(lp136
F0.11648403666097966
aF0.4369882321993237
aF0.3060159194089257
aF0.07802406412734865
aF0.80826160674919811
aF0.99510847861667051
aF0.14252220519234057
aF0.70792465766912716
aF0.99447621047369072
aF0.13078436452619191
aF0.53223310197607065
aF0.069557033413089386
aF0.12060887371765816
aF0.057988648981273754
aF0.068239063501159367
aF0.089798448450625651
aF0.13090822265404278
aF0.094272152987782146
aa(lp137
F0.10367976739103087
aF0.45229876088011239
aF0.3139792549739156
aF0.07802406412734865
aF0.80894755758039338
aF0.99510847861667051
aF0.11227275084324759
aF0.70629162211446028
aF0.99273257267959059
aF0.11925572250141049
aF0.49021770094510203
aF0.07204854271916139
aF0.12474050683743734
aF0.11524615977607482
aF0.070097915140218667
aF0.089798448450625651
aF0.13090822265404278
aF0.094272152987782146
aaa(lp138
(lp139
F0.41311178159050571
aF0.42347492499641881
aF0.31694971018972862
aF0.082096533397813157
aF0.26978598222348471
aF0.65278379009103016
aF0.1676084876971268
aF0.66234272563643404
aF0.94776297186596425
aF0.25790113864297604
aF0.59599027967966345
aF0.068756923694118219
aF0.46580581206790195
aF0.267139217828261
aF0.13402815581003258
aF0.70512702721421472
aF0.84681717432509096
aF0.31310444450279179
aa(lp140
F0.79112627971803084
aF0.40367885241899604
aF0.29882638417380497
aF0.23547074051957004
aF0.26978598222348471
aF0.88793094665181571
aF0.7255239051022595
aF0.41089892732602312
aF0.92206017709527721
aF0.66121204530288191
aF0.47407788199342715
aF0.076252958402978299
aF0.94565855548988109
aF0.68484737538609086
aF0.12064198206254195
aF0.75661863881209301
aF0.84681717432509096
aF0.19101269129832821
aa(lp141
F0.81563520403817724
aF0.41057746014850072
aF0.30800313961340425
aF0.7712567906835065
aF0.40275535586414946
aF0.90797698222368539
aF0.78273058371205095
aF0.41269577771037563
aF0.96823298019291848
aF0.69238576094980819
aF0.46100493043196417
aF0.06576392538938744
aF0.75622401069581491
aF0.32458128566471905
aF0.11348505891700725
aF0.75661863881209301
aF0.61764656931480522
aF0.19101269129832821
aa(lp142
F0.52452984876097908
aF0.43124431503869215
aF0.28092023819661688
aF0.14719402244805657
aF0.47422732328044376
aF0.73736524774287315
aF0.30439567615972507
aF0.64058774353531744
aF0.96900684769750423
aF0.49698875239829454
aF0.61444895834569346
aF0.063860024967348591
aF0.55746440199861913
aF0.28329102747767143
aF0.082967717652052908
aF0.52009372090928518
aF0.40527901504667102
aF0.32016758731246803
aa(lp143
F0.25778656106189374
aF0.51185593110901872
aF0.21780930763118728
aF0.11791483172779256
aF0.47422732328044376
aF0.53375594246048275
aF0.045276222405038508
aF0.73773997902908128
aF0.93032339794197561
aF0.20194526630708337
aF0.59421417139158517
aF0.068756923694118219
aF0.30663341428713997
aF0.31054264168488671
aF0.0653776155718961
aF0.49432135854896675
aF0.39426337680784013
aF0.32016758731246803
aa(lp144
F0.36023822680828693
aF0.49410070056434113
aF0.25338206401521424
aF0.11791483172779256
aF0.70547306349087302
aF0.53375594246048275
aF0.068332873862846422
aF0.72300228568546976
aF0.94813075590841656
aF0.41102640805240875
aF0.54033939884016258
aF0.068756923694118219
aF0.40980852895554226
aF0.28404812636270704
aF0.098216801840332962
aF0.40946305188814752
aF0.23319624903817504
aF0.21800560318877688
aa(lp145
F0.68896726684964249
aF0.44564560610567616
aF0.31371974408804876
aF0.59581950960005237
aF0.66740178736233602
aF0.91330338531872868
aF0.6950651457740501
aF0.66692935284566646
aF0.95129814048633254
aF0.72619825355825918
aF0.54216346521903835
aF0.053550703660370055
aF0.69671830693351389
aF0.23656546850916682
aF0.12267832111169225
aF0.45656551596513095
aF0.22547424177223327
aF0.19740123232897644
aa(lp146
F0.76636670353763137
aF0.36797412946128427
aF0.30333582345540028
aF0.65208909300392548
aF0.52349629264963637
aF0.82875733635982296
aF0.77889591594566465
aF0.54134706607453942
aF0.93999098686492022
aF0.80537613569967603
aF0.52342519847325275
aF0.080038979638222998
aF0.75813248954611445
aF0.29688375136770617
aF0.1335009025209147
aF0.5378882441060221
aF0.31367265414138962
aF0.15528773813463811
aa(lp147
F0.55270321604187822
aF0.32897191227228095
aF0.31549096815360261
aF0.41909699074004692
aF0.52349629264963637
aF0.82875733635982296
aF0.35230018747498615
aF0.60532438646404363
aF0.9383685835360287
aF0.44879833343504738
aF0.43662550488268115
aF0.095591800349535308
aF0.68770823930060598
aF0.29688375136770617
aF0.11810645426037616
aF0.5378882441060221
aF0.31367265414138962
aF0.19699174323504415
aa(lp148
F0.25716056808197763
aF0.50896007368207141
aF0.36464712299978552
aF0.060320572616698737
aF0.53855882923140419
aF0.74994918948875711
aF0.03175748827702693
aF0.73773997902908128
aF0.94068155533207842
aF0.18687757339471095
aF0.5154224979193075
aF0.068756923694118219
aF0.28406932116592531
aF0.30739672395388801
aF0.10740577812419733
aF0.41873978536715384
aF0.26171385683566478
aF0.48182820882354777
aa(lp149
F0.37718488104923281
aF0.51633166787405083
aF0.35882336580524243
aF0.060320572616698737
aF0.2730857294882113
aF0.74994918948875711
aF0.097871225697854447
aF0.70965055844413116
aF0.94048074493821188
aF0.33381100824542981
aF0.5154224979193075
aF0.068756923694118219
aF0.45028344763946737
aF0.45010003000583138
aF0.086697805092526808
aF0.717754573888578
aF0.62921652592546251
aF0.48182820882354777
aa(lp150
F0.73441250842012795
aF0.37601789362609106
aF0.29686021736230522
aF0.52417427541821615
aF0.2730857294882113
aF0.88680671040566827
aF0.59230146917010529
aF0.47571729467675916
aF0.92152901875833937
aF0.6327598687863687
aF0.71126931962240536
aF0.071717664917459317
aF0.71130933795392515
aF0.43520230381903763
aF0.12044765749863467
aF0.72856852216086188
aF0.62921652592546251
aF0.22108104342104506
aa(lp151
F0.82141154481083467
aF0.354482894307529
aF0.29364699511651443
aF0.4076414131589996
aF0.38878797693317302
aF0.88680671040566827
aF0.67675606203122485
aF0.39573172839958642
aF0.92152901875833937
aF0.78984890161359833
aF0.71126931962240536
aF0.047413581663979409
aF0.79178445497909022
aF0.51378435869227823
aF0.12044765749863467
aF0.72856852216086188
aF0.66284053027027856
aF0.19077037463080398
aa(lp152
F0.55324132059755471
aF0.38619168602457254
aF0.35093112183741271
aF0.16457085093194301
aF0.38878797693317302
aF0.88687559133859117
aF0.29170572534930972
aF0.40369229083072328
aF0.95536561259202601
aF0.43591714087415978
aF0.58091059314711357
aF0.083202606733866105
aF0.70883342615880529
aF0.60333307449777185
aF0.11703897102471991
aF0.71456350281557113
aF0.66284053027027856
aF0.31174510267618394
aa(lp153
F0.26591390307224844
aF0.41700965184257438
aF0.36766359055928355
aF0.14923878632963708
aF0.4042549733124019
aF0.70168412466933572
aF0.097310496553732195
aF0.58736234986057301
aF0.89763894019676194
aF0.20471804123280485
aF0.58091059314711357
aF0.068756923694118219
aF0.24338624890389177
aF0.24018019560531434
aF0.11302187602719052
aF0.52884341836601545
aF0.53346183457930663
aF0.73630521079977884
aa(lp154
F0.3281598413147947
aF0.46840836280792852
aF0.32093644882628253
aF0.14923878632963708
aF0.66085425646653562
aF0.70168412466933572
aF0.14245354376309807
aF0.65886384140907039
aF0.86378939288347956
aF0.23358216681118038
aF0.58242359181183778
aF0.039269700083674794
aF0.37885560978638527
aF0.24426794823887485
aF0.13514449822008312
aF0.50488191855954379
aF0.35554337606350617
aF0.73630521079977884
aa(lp155
F0.62377498775289575
aF0.59806338716830909
aF0.27210194104189372
aF0.58251279135392653
aF0.68383777611886176
aF0.87224167157313892
aF0.61605453232671925
aF0.65486187226241732
aF0.93031268693344993
aF0.58094456856431109
aF0.71446990604444971
aF0.0097824764732313621
aF0.57829272960088873
aF0.395559847778301
aF0.15184649807517558
aF0.50488191855954379
aF0.35554337606350617
aF0.1492739210068364
aaa(lp156
(lp157
F0.34489469053544664
aF0.45413185432734593
aF0.34111292453283859
aF0.035060736718696479
aF0.67234397502785237
aF0.79017810826549351
aF0.28606729885336102
aF0.67752283351522913
aF0.96933618892228346
aF0.28402846070764459
aF0.5154224979193075
aF0.068756923694118219
aF0.42363939145446528
aF0.24800253739178907
aF0.10927643550845126
aF0.38925340689543908
aF0.26872789894192239
aF0.29702447061800119
aa(lp158
F0.69397204932105039
aF0.37232420797342142
aF0.29262004416994108
aF0.46092439406108121
aF0.46140614514100264
aF0.92043464948739762
aF0.62804292311926824
aF0.55431145457640429
aF0.96234151893240227
aF0.60617411381980768
aF0.48228649375446225
aF0.051217874710448516
aF0.66323159255054143
aF0.28487159865593109
aF0.089462612388003987
aF0.60960865172146828
aF0.46781523010044523
aF0.18495019264233731
aa(lp159
F0.80730865028063592
aF0.3712080820354291
aF0.2900545141085038
aF0.51928132834968876
aF0.46140614514100264
aF0.91724599234365878
aF0.70693429867714219
aF0.41046707861574194
aF0.94718172568541292
aF0.80245872331524148
aF0.66872316061741832
aF0.047092951098133051
aF0.79572946536632205
aF0.39613692876801715
aF0.086304340529640047
aF0.60960865172146828
aF0.46781523010044523
aF0.18495019264233731
aa(lp160
F0.53142610215965502
aF0.41812149963896594
aF0.37026256879623926
aF0.20190530419259828
aF0.49124523359355016
aF0.85013224370218643
aF0.43918386911175322
aF0.52785858526842266
aF0.94843041347284684
aF0.44333015915823903
aF0.65230622785174786
aF0.068756923694118219
aF0.6117847433214707
aF0.36869579077451187
aF0.16677281314981129
aF0.55987519408601538
aF0.43034474470219775
aF0.37192144971854302
aa(lp161
F0.24222312608795638
aF0.44325279044977839
aF0.38317409819793191
aF0.013209652863051091
aF0.60853106305570603
aF0.69708253823446276
aF0.13513641895384329
aF0.66008365388742096
aF0.87194610506308801
aF0.19272615418951278
aF0.5154224979193075
aF0.068756923694118219
aF0.27544085628088455
aF0.24840072452670212
aF0.2607881454419656
aF0.36625735561270578
aF0.32607634236531752
aF0.48041975240806045
aa(lp162
F0.36768366726112955
aF0.43346987611955123
aF0.31282218050785943
aF0.013209652863051091
aF0.64179114188920128
aF0.69708253823446276
aF0.15850886835636976
aF0.61631877342641417
aF0.93636872595807552
aF0.30015182763327469
aF0.51141532775554088
aF0.065524841961590113
aF0.44900192217668056
aF0.22056388621513268
aF0.10406599628147344
aF0.47956190284775657
aF0.38501575782569353
aF0.48041975240806045
aa(lp163
F0.72420938330333895
aF0.48039608577841481
aF0.29275184679370658
aF0.64300204493435187
aF0.45349348291177005
aF0.93916101287488218
aF0.72872932707446636
aF0.54430891643693469
aF0.96244977102485674
aF0.64032441430891784
aF0.63661546230585031
aF0.062707803942346388
aF0.66645548657130682
aF0.4568696754602245
aF0.089960712834031564
aF0.65568520693001908
aF0.4875547072345679
aF0.11324130245410953
aa(lp164
F0.79507353483450316
aF0.3861536553642238
aF0.29243983261397311
aF0.75381080490974683
aF0.45349348291177005
aF0.90038737261442303
aF0.73601094629453112
aF0.53994517124317232
aF0.94585058805987332
aF0.76836949601184579
aF0.35123740908656403
aF0.051783063289233579
aF0.74874306962555248
aF0.51809206651697637
aF0.094727497995248947
aF0.65568520693001908
aF0.4875547072345679
aF0.24629601268323897
aa(lp165
F0.57397594277066044
aF0.3149657303156268
aF0.30270200308487433
aF0.32896449739387723
aF0.47484885633503299
aF0.77493196128089425
aF0.48856402057628856
aF0.53384394904296528
aF0.89731203444393925
aF0.52434084885362497
aF0.31954232631384938
aF0.038124312260208779
aF0.63102053572436467
aF0.37345167974159421
aF0.15970333930452496
aF0.61959149755484144
aF0.31088006702986926
aF0.24629601268323897
aa(lp166
F0.26620917342364442
aF0.47686083269957263
aF0.33119917204472438
aF0.015593164621749134
aF0.53411883675246963
aF0.77493196128089425
aF0.11645135373368534
aF0.68854399028151614
aF0.95201961050087014
aF0.16261620936202842
aF0.5154224979193075
aF0.068756923694118219
aF0.33282934631981254
aF0.22087064891909491
aF0.1169939115722568
aF0.41229946785697863
aF0.53771048778383768
aF0.33082475874241252
aa(lp167
F0.40524756612778351
aF0.51153271466722394
aF0.33185375696425878
aF0.015593164621749134
aF0.53411883675246963
aF0.87683112005919828
aF0.12455036657103621
aF0.6291105841838277
aF0.95437902526271357
aF0.29312999956176733
aF0.5154224979193075
aF0.068756923694118219
aF0.56871888583646746
aF0.30747947934405273
aF0.11578977335641039
aF0.50502997259474036
aF0.53771048778383768
aF0.33082475874241252
aa(lp168
F0.7436831935989261
aF0.38454757695718156
aF0.31704738932993515
aF0.32584193019655383
aF0.21528846231815879
aF0.87683112005919828
aF0.60614670101861434
aF0.42655923105309157
aF0.95196836589138167
aF0.61448559141087133
aF0.48343169986403878
aF0.076393828898740024
aF0.7055565108797015
aF0.44791630358028389
aF0.10206533052867393
aF0.9525968177363946
aF0.91414558790203493
aF0.22521639918818148
aa(lp169
F0.82843262450453359
aF0.35789956381086457
aF0.29446004094577383
aF0.7463685415907525
aF0.21528846231815879
aF0.90113915974069991
aF0.60614670101861434
aF0.439014911579514
aF0.92491136825831577
aF0.62130833641160421
aF0.32227836070979343
aF0.063903476250560878
aF0.70309760483085826
aF0.64360566641606221
aF0.091084477178093509
aF0.9525968177363946
aF0.91414558790203493
aF0.2281199714200246
aa(lp170
F0.71091529146518639
aF0.40041003876899112
aF0.29321918565092531
aF0.30099963425678045
aF0.29758861534148706
aF0.90379025814461722
aF0.552411255257926
aF0.44365816877711789
aF0.91982263545013809
aF0.62130833641160421
aF0.40842153480528209
aF0.028163849622968605
aF0.70309760483085826
aF0.62211070932490931
aF0.12736890061358183
aF0.74203674251086627
aF0.69102144189074466
aF0.2281199714200246
aa(lp171
F0.54776292941493943
aF0.39063584162056025
aF0.34200044548450015
aF0.30099963425678045
aF0.44763686751031218
aF0.9294982095084271
aF0.56720475746840027
aF0.54491939673163869
aF0.94431331151223807
aF0.56816797621969295
aF0.72714866483743201
aF0.086380459243066934
aF0.54380306901570108
aF0.53585750496562057
aF0.14817545553269793
aF0.45190424933459716
aF0.30179467077916267
aF0.16960865985171442
aaa(lp172
(lp173
F0.40175017488096093
aF0.50405365753190934
aF0.30393531444092386
aF0.035462729693448963
aF0.55660046521984108
aF0.8399690727249125
aF0.20787481879349848
aF0.71189929806486663
aF0.92962815126742437
aF0.33704839506326539
aF0.55184961981638747
aF0.068756923694118219
aF0.42227917152938954
aF0.24937818829758532
aF0.14351424918903716
aF0.49984828521415503
aF0.34332539480165525
aF0.28243988636393197
aa(lp174
F0.77030725143161327
aF0.50380719175513367
aF0.29370983132393674
aF0.68578428311593775
aF0.29976672343021027
aF0.8399690727249125
aF0.62408771799843532
aF0.57382133884938957
aF0.93153604792550793
aF0.62303529553303905
aF0.60731706286046516
aF0.088822651486926696
aF0.80843922805187574
aF0.52160302124907376
aF0.11178127776210237
aF0.786976285922939
aF0.70797219675471956
aF0.18109444693833612
aa(lp175
F0.83001626395674954
aF0.32560734684564113
aF0.28867800839291152
aF0.59014052182043142
aF0.29976672343021027
aF0.81353530515225447
aF0.6080036073990559
aF0.26047198977311925
aF0.95604882662053581
aF0.70712956128223325
aF0.38390051712253015
aF0.081312103891374082
aF0.92419735310684414
aF0.71402857317042612
aF0.10027031571754363
aF0.786976285922939
aF0.70797219675471956
aF0.14924531943901503
aa(lp176
F0.53817962039821332
aF0.27714012855101655
aF0.2991656814653742
aF0.21927738459119439
aF0.3146399284778385
aF0.68171956222235086
aF0.34917799615936218
aF0.3893849643033836
aF0.92344378443846875
aF0.50538887155165912
aF0.51019949724966251
aF0.065377008112334808
aF0.54852949779002536
aF0.34386110514769863
aF0.15304222410744772
aF0.73173469197074148
aF0.5510099319063968
aF0.25978052684585218
aa(lp177
F0.25901379907724531
aF0.41687322241500424
aF0.29767858180493739
aF0.10758432932108736
aF0.57521151844393459
aF0.61595270687835513
aF0.091726158488839027
aF0.64447102883843188
aF0.87926368564641821
aF0.19753350486440613
aF0.51587227095326194
aF0.0939354508154054
aF0.29755410106593533
aF0.24628102082676884
aF0.20853797970470805
aF0.35090193755408916
aF0.37415566658920385
aF0.25978052684585218
aa(lp178
F0.43724186539192794
aF0.54783261504814806
aF0.2615592171886777
aF0.10758432932108736
aF0.43747679222930164
aF0.61595270687835513
aF0.23579200243759149
aF0.63040912459799259
aF0.86148333598821925
aF0.30237636942853224
aF0.6069967700181601
aF0.068756923694118219
aF0.44145013685269885
aF0.26613464905646123
aF0.16013392297072848
aF0.69028778565992277
aF0.52830909512979407
aF0.23809030558726085
aa(lp179
F0.82534644464492324
aF0.47330152182769203
aF0.27650504141458454
aF0.65857526489038976
aF0.38086936252384707
aF0.69594658096520678
aF0.69354048187913375
aF0.33839415139363943
aF0.95329175654894738
aF0.68630752825378738
aF0.6069967700181601
aF0.05866945765818278
aF0.944781075683508
aF0.69061564900175021
aF0.092805876742440924
aF0.75677294776873405
aF0.71016573181211362
aF0.19760813612513262
aa(lp180
F0.83118158272858045
aF0.36024475988247129
aF0.29722581817997074
aF0.78018576788404859
aF0.38086936252384707
aF0.93629977030394218
aF0.73284191211016736
aF0.34011303844449148
aF0.96919828247244555
aF0.68630752825378738
aF0.41560160491864273
aF0.05866945765818278
aF0.87398675591712982
aF0.67550300290305287
aF0.083595561158921625
aF0.75677294776873405
aF0.71016573181211362
aF0.12861091057742358
aa(lp181
F0.51925211580064279
aF0.35749327428004329
aF0.30072377250953281
aF0.16495901818661873
aF0.38465377148245156
aF0.88678611743298708
aF0.27930665648230035
aF0.4757198592827992
aF0.96213503724768257
aF0.46774522895792348
aF0.46551205141897511
aF0.078404672278523324
aF0.5084759603697846
aF0.45593432393688976
aF0.093159135552268874
aF0.68836673800107384
aF0.48365211934244906
aF0.20225058201078089
aa(lp182
F0.20688346572430155
aF0.41279572756595373
aF0.2563262929981866
aF0.011750192257314863
aF0.44999478345941007
aF0.56283698591190312
aF0.048805491319363375
aF0.67285209268049273
aF0.92595430133486012
aF0.16565401040376826
aF0.5154224979193075
aF0.072034079657443351
aF0.32059570526134401
aF0.33313977105804948
aF0.10204746318193814
aF0.28689576034131598
aF0.26189733856067976
aF0.20225058201078089
aa(lp183
F0.40763437673405339
aF0.56080911611901851
aF0.2635657402107151
aF0.011750192257314863
aF0.62755446027886597
aF0.56283698591190312
aF0.10765004839964101
aF0.73475634696287273
aF0.97031356390598322
aF0.33837411719806337
aF0.56832173560041177
aF0.068756923694118219
aF0.44283615045433267
aF0.32765588181310096
aF0.12097222442172466
aF0.76391710484911257
aF0.52831234066406252
aF0.19027002114477376
aa(lp184
F0.68841525896443523
aF0.38637257661955293
aF0.30981539464046681
aF0.64312881853565784
aF0.31956984171144409
aF0.88925914215682522
aF0.51073343480022759
aF0.48613757269301505
aF0.93213804467858341
aF0.54978388015188073
aF0.73385685908641662
aF0.063366143419737203
aF0.61557481111901879
aF0.37538066981665125
aF0.1358958873853022
aF0.76391710484911257
aF0.59327221197473412
aF0.17989497408943966
aa(lp185
F0.76202475883324006
aF0
aF0.30664101709163893
aF0.72653085455820499
aF0.31956984171144409
aF0.88925914215682522
aF0.66018332102716926
aF0
aF0.89552419111267756
aF0.53875930977281306
aF0
aF0.066722915855428999
aF0.71085021797026149
aF0.43864026128406336
aF0.16114220401177073
aF0.71267691463027405
aF0.59327221197473412
aF0.17989497408943966
aaa(lp186
(lp187
F0.37586733105524273
aF0.49971180323179698
aF0.39450400799397894
aF0.098233430736194047
aF0.5490846799550313
aF0.049111522279779551
aF0.22820088521174944
aF0.73773997902908128
aF0.72238409880070509
aF0.31891261272821686
aF0.59896486012655448
aF0.068756923694118219
aF0.39189864167474409
aF0.28286732781311907
aF0.76642731758410831
aF0.44483930928643672
aF0.34146588282812401
aF0.99679054771662967
aa(lp188
F0.72637892595537068
aF0.37597341254920352
aF0.18288098157125221
aF0.51594297005994993
aF0.19615913148844843
aF0.010199237329537758
aF0.568402893291024
aF0.42238368180010039
aF0.011836959322051643
aF0.50879263577638112
aF0.53649874190380098
aF0.08357456625153821
aF0.78772804124862106
aF0.52254196762453942
aF0.92095434268099918
aF0.83970434756499046
aF0.85205577016158429
aF0.99679054771662967
aa(lp189
F0.86780182977870046
aF0.36780839234272833
aF0.30153951109961852
aF0.68577680031906008
aF0.19615913148844843
aF0.010199237329537758
aF0.64670666080519168
aF0.27302310594704887
aF0.080643517633516293
aF0.76190306587881662
aF0.21636615060556907
aF0.10790418596760873
aF0.8728069289093735
aF0.81286051866441666
aF0.92095434268099918
aF0.83970434756499046
aF0.85205577016158429
aF0.98758332654313596
aa(lp190
F0.56068269837067874
aF0.41366009686392013
aF0.19706157380968981
aF0.13545849398083742
aF0.35485433498251412
aF0.024527944537022228
aF0.39276556654619388
aF0.57396853000008941
aF0.14602683398647909
aF0.4741334115611342
aF0.5154224979193075
aF0.062855281731129406
aF0.59339835662447871
aF0.48420868677665374
aF0.68535345047159579
aF0.74501129651018416
aF0.67337275307554523
aF0.98758332654313596
aa(lp191
F0.26859754793972512
aF0.49239339806912091
aF0
aF0.10037988170388894
aF0.57512515200438719
aF0.045145789430749872
aF0
aF0.73773997902908128
aF0.90288232133643076
aF0.21745267093636661
aF0.5154224979193075
aF0.068756923694118219
aF0.3584722521285077
aF0.38805100802505421
aF0.063970248499815016
aF0.40373947635121832
aF0.28345455872368791
aF0.8684014282782091
aa(lp192
F0.36558572852979027
aF0.52441649078849684
aF0.33652291614020746
aF0.10037988170388894
aF0.55760074201196397
aF0.026704981656425764
aF0.071424763298637645
aF0.7300134565225237
aF0.97819435979120128
aF0.37000682480881486
aF0.56921169030639884
aF0.068756923694118219
aF0.39950109391756033
aF0.48873974677104259
aF0.18656940202804423
aF0.45865070957689213
aF0.33786183231131295
aF0.99018737239276255
aa(lp193
F0.74558262470071424
aF0.40592642806898854
aF0.29724283423851561
aF0.53292566672443986
aF0
aF0.026704981656425764
aF0.52566456341530599
aF0.56462974900389673
aF0
aF0.613115058843966
aF0.57503108964142124
aF0.075168902755964467
aF0.66087518496894804
aF0.61050344765427444
aF0.99999999999999989
aF1
aF0.95576712106814377
aF0.99018737239276255
aa(lp194
F0.88842219163196501
aF0.39223407597532084
aF0.17406819106102839
aF0.53292566672443986
aF0
aF0.031445150863295135
aF0.72638547801755959
aF0.41747159214458657
aF0.011827821168581165
aF0.68721788190593169
aF0.61987447122227468
aF0.064035209659694489
aF0.66087518496894804
aF0.47923630783974358
aF0.96555904169541229
aF1
aF0.95576712106814377
aF0.96229659662824285
aa(lp195
F0.5876441567073063
aF0.35133204942396778
aF0.41875762659018151
aF0.18889662129222418
aF0.020182419299276777
aF0.041018760369874396
aF0.40476611872874713
aF0.57305423317094517
aF0.935484675435724
aF0.46345221283872673
aF0.52806372175256866
aF0.071034071528853673
aF0.52793488589164339
aF0.18753889503501867
aF0.350243748568415
aF0.98325824994479127
aF0.85765984744665358
aF0.95962000021452865
aa(lp196
F0.23556290880385466
aF0.36314597623268335
aF0.35308588414092035
aF0.13449946426813056
aF0.72338838250842463
aF0.041018760369874396
aF0.14332567174308611
aF0.65189524760413764
aF0.73716348034419599
aF0.20189814685595903
aF0.5154224979193075
aF0.068756923694118219
aF0.27963921232420919
aF0.083830038898194473
aF0.38998669992710233
aF0.26402195601626643
aF0.17975121405613509
aF0.95827863225574472
aa(lp197
F0.4457109697262947
aF0.50254170902614148
aF0.35049707204215513
aF0.13449946426813056
aF0.26328743092254969
aF0.063888783139719907
aF0.23234037057590115
aF0.67338110480686408
aF0.52330593227632383
aF0.2495703111058073
aF0.5687251033117936
aF0.089313639763289251
aF0.48119841336409697
aF0.4008370152078895
aF0.46365495645988869
aF0.69539602680701629
aF0.73919844628514619
aF0.96093885784650757
aa(lp198
F0.7613861995567428
aF0.41210166320114139
aF0.28425125844938293
aF0.45790709976756117
aF0.26328743092254969
aF0.027760960152897751
aF0.67328580691934004
aF0.40696077915073753
aF0.9414314159937025
aF0.61136606531922577
aF0.52944102611764032
aF0.077191484903503096
aF0.80102010784555755
aF0.56922296291990682
aF0.11531067663659919
aF0.69539602680701629
aF0.73919844628514619
aF0.98158978930859109
aa(lp199
F0.82538807258080027
aF0.39822281079049288
aF0.29328868647167011
aF0.73713371892764701
aF0.5232635767558016
aF0.027760960152897751
aF0.73567897949167516
aF0.46374298660110003
aF0.95177814689167084
aF0.8285911817855639
aF0.45582831066706814
aF0.066598162169808781
aF0.80711018011860347
aF0.44869019708765184
aF0.10394571082655044
aF0.62429614619822382
aF0.47823206114424299
aF0.99374911254562859
aa(lp200
F0.76176928204265804
aF0.390451177007062
aF0.2861896442766414
aF1.0000000000000002
aF0.61022380952804878
aF0.04219871832512867
aF0.79979981883165163
aF0.56676559147812999
aF0.97227915195973358
aF0.80510760556076588
aF0.54513936284624376
aF0.065739153998469274
aF0.68217821523182343
aF0.25648063555372669
aF0.096711140287260272
aF0.47532379345356979
aF0.288873562654685
aF0.9223098869830415
aaa(lp201
(lp202
F0.41762635702150203
aF0.46879048298795417
aF0.27404774252765385
aF0.056622597334945624
aF0.33869259874680818
aF0.67853376851715841
aF0.21418717523975314
aF0.64760948471664637
aF0.88966907232696424
aF0.33153246353353505
aF0.54161715917993414
aF0.061808715126418473
aF0.42884495521050914
aF0.38034692235791095
aF0.11294517314077249
aF0.71454897970920916
aF0.72495684679106653
aF0.47015553034040708
aa(lp203
F0.78793493012853144
aF0.49541526975185607
aF0.30871968082128587
aF0.60840351646623481
aF0.14557135102583618
aF0.86912889331042442
aF0.59143518185485722
aF0.59344599562491962
aF0.95693374776589746
aF0.71334796758237518
aF0.60207012621288836
aF0.061623955151059243
aF0.74490307181519633
aF0.48293133900867707
aF0.12000964290706584
aF0.86988374644515931
aF0.72495684679106653
aF0.18806483342953728
aa(lp204
F0.80618260767888783
aF0.3628055400647141
aF0.28519241461536288
aF0.62376350423206128
aF0.14557135102583618
aF0.81125985784149213
aF0.85619889495893087
aF0.62313487452686989
aF0.96981297314786818
aF0.77925719111973613
aF0.52045092344374666
aF0.057079095107473832
aF0.69616780993381411
aF0.25423384674378807
aF0.10373542201746394
aF0.86988374644515931
aF0.59947556923575929
aF0.19934418614915345
aa(lp205
F0.53522118023152021
aF0.30938527841519919
aF0.33428892286025891
aF0.25039859239199247
aF0.47564157289710829
aF0.81125985784149213
aF0.40205900246326853
aF0.5698474813746699
aF0.93661099089718558
aF0.46450874265325082
aF0.51710782207399808
aF0.055740252815356314
aF0.58116283207133568
aF0.20831757881594529
aF0.12902261863332337
aF0.59508713157909265
aF0.29776772751090125
aF0.27124612812373161
aa(lp206
F0.21393926332018198
aF0.40340296208949628
aF0.41019004673155401
aF0.066236099206041704
aF0.64576565435579458
aF0.45445413207003849
aF0.13765314251360214
aF0.70934634397194685
aF0.91906031181589021
aF0.1560380161472113
aF0.51619829861188082
aF0.071660853654014478
aF0.21827568876722497
aF0.17000200213039962
aF0.23338672872495914
aF0.27334627717160609
aF0.16930957792588444
aF0.74260525743184214
aa(lp207
F0.3961065572887516
aF0.45429579698601746
aF0.33852753511438405
aF0.066236099206041704
aF0.49653175613986594
aF0.45445413207003849
aF0.19027855880248576
aF0.71638011598987517
aF0.90871511036043218
aF0.30319586568376761
aF0.5451656683983207
aF0.04897000490279288
aF0.4250799953056964
aF0.18226024227104742
aF0.14373048581870032
aF0.61568909795463989
aF0.3909943030874557
aF0.74260525743184214
aa(lp208
F0.75522649889703497
aF0.45183706312892019
aF0.28733226132979212
aF0.7036363890539018
aF0.42662222764502877
aF0.87571607056812129
aF0.67652590894660924
aF0.52642937020739544
aF0.93654010191838277
aF0.62565093435197328
aF0.56861465959746549
aF0.049315486944063916
aF0.74734205251899533
aF0.41227693966484175
aF0.11459803208491323
aF0.81399842546571233
aF0.711450896004026
aF0.22473701152000891
aa(lp209
F0.83852849955623143
aF0.38237487139942111
aF0.28794730254160261
aF0.56094201879298056
aF0.16820749682435232
aF0.81661512107385337
aF0.67652590894660924
aF0.36805882304883392
aF0.94604512218156211
aF0.79965153113555121
aF0.65310881094567708
aF0.08075947069833278
aF0.74734205251899533
aF0.64286039764283254
aF0.10880411807713258
aF0.82737849990543744
aF0.711450896004026
aF0.14556605220769003
aa(lp210
F0.59704643798030588
aF0.34789244715226786
aF0.31276170354842286
aF0.1749208638371969
aF0.16820749682435232
aF0.70044535921351092
aF0.32955489599103349
aF0.45024501746176954
aF0.93234076764035156
aF0.44326343642603727
aF0.5154224979193075
aF0.068756923694118219
aF0.73451291664624641
aF0.31203411656142854
aF0.15557406244296679
aF0.82737849990543744
aF0.69859551731028136
aF0.32566138027338914
aa(lp211
F0.25882126266742672
aF0.45493358478323714
aF0.19915915848826438
aF0.11413560139135091
aF0.40665562003086592
aF0.15173010165743273
aF0.15385511613578753
aF0.72357189960840429
aF0.78288790730189983
aF0.17264391810059415
aF0.5154224979193075
aF0.068756923694118219
aF0.22702441858972117
aF0.21687232221867861
aF0.2837274424114144
aF0.57269595654187266
aF0.53211211385749946
aF0.45244422937818929
aa(lp212
F0.37281197155148821
aF0.48759017266588095
aF0.19386652071852406
aF0.11413560139135091
aF0.52904495524647266
aF0.15173010165743273
aF0.19209061187695523
aF0.724639474008127
aF0.91128514005530747
aF0.17938882205538204
aF0.5154224979193075
aF0.092032005897109859
aF0.42792664983098305
aF0.2273439841151659
aF0.14967819211093347
aF0.49285636171525959
aF0.50872255611785322
aF0.45244422937818929
aa(lp213
F0.74404605186971839
aF0.42397749513212851
aF0.30653136108969226
aF0.4464867326442481
aF0.52904495524647266
aF0.91811681395165778
aF0.65678925799563093
aF0.36688620083061235
aF0.97935433068701372
aF0.75044382966540313
aF0.64868880983881438
aF0.071132765845739465
aF0.76861176483757421
aF0.4859281183493333
aF0.10340185179036099
aF0.61761785807859593
aF0.50872255611785322
aF0.12148938401732651
aa(lp214
F0.82518611280215348
aF0.35547357037189647
aF0.30605109194512858
aF0.86283820418452639
aF0.38590526130978292
aF0.87152548007809028
aF0.77573763984793243
aF0.43351099279324823
aF0.97935433068701372
aF0.77145602566551974
aF0.49266387783712262
aF0.064860998511532361
aF0.74557597378318363
aF0.27498235928829662
aF0.080439800855855684
aF0.68492412071988285
aF0.57177016557850746
aF0.20538762651384945
aa(lp215
F0.56881780402906434
aF0.34801341783663459
aF0.27725133745884878
aF0.43379752325664156
aF0.38590526130978292
aF0.73718397357934373
aF0.4398693591756232
aF0.60279829092930171
aF0.88224227377658115
aF0.48791551344130413
aF0.49359492578862973
aF0.067622126494587195
aF0.54849171030028132
aF0.16285445757675832
aF0.13495064820829361
aF0.68492412071988285
aF0.57177016557850746
aF0.24267972168622653
aa(lp216
F0.25784409244089224
aF0.3873276102789931
aF0.21555336505786521
aF0.10057560292969565
aF0.65691558845366238
aF0.48815288638365484
aF0.11166415464557089
aF0.70758659791959833
aF0.83505585963863649
aF0.22580065541903899
aF0.5154224979193075
aF0.068756923694118219
aF0.28268945900282344
aF0.10546694263053541
aF0.16657776834923668
aF0.30096391018151275
aF0.18655826672171111
aF0.42760131690397524
aa(lp217
F0.1948975455588331
aF0.4829155390213643
aF0.1823296843092114
aF0.10057560292969565
aF0.72507118819496041
aF0.48815288638365484
aF0.083370482606301782
aF0.72972930984209516
aF0.75404992438860741
aF0.097279746505112327
aF0.53103348209795109
aF0.034378461847059109
aF0.2818083648276789
aF0.090807870855806688
aF0.20322288235650554
aF0.23378183228590432
aF0.22390329671667794
aF0.42760131690397524
aa(lp218
F0.49801929253944949
aF1
aF0.15975104122195427
aF0.97240448280140201
aF1
aF0.93672466246921116
aF0.6623506324432118
aF1
aF0.92754433202231334
aF0.4945321461584028
aF1
aF0
aF0.39050180444565369
aF0.46410754505271135
aF0
aF0.23378183228590432
aF0.22390329671667794
aF0
aaa(lp219
(lp220
F0.44063373730157879
aF0.61365085998768476
aF0.42110731735941848
aF0.12824290137038569
aF0.67984823575639708
aF0.37126804509406086
aF0.21436614949638813
aF0.73123754123240536
aF0.99515605793628192
aF0.41799967203772159
aF0.5154224979193075
aF0.083228466351990354
aF0.47471662512286805
aF0.25145454919892246
aF0.15677330261974012
aF0.78750904319206994
aF0.62940075255251604
aF0.83293877699137042
aa(lp221
F0.84294593320391731
aF0.57428064085179742
aF0.32287689769652478
aF0.67967445174772401
aF0.2315665864167944
aF0.89664167727221444
aF0.57226033934329279
aF0.70276757831621628
aF0.92896674729758899
aF0.60592914943660814
aF0.73832680597733324
aF0.077854426846618835
aF0.86050319286567123
aF0.80063781929696942
aF0.12127669453777253
aF0.84062105956241395
aF0.62940075255251604
aF0.2494752919107292
aa(lp222
F0.84428835993816898
aF0.32468823910251182
aF0.28554409635458189
aF0.53272968412627297
aF0.14828229661414449
aF0.89089450344265286
aF0.49148519790937828
aF0.2428175698981544
aF0.96962848099415244
aF0.74607655338280843
aF0.83365969812198726
aF0.07175746678932278
aF0.77721927957805237
aF0.69241084263005648
aF0.073155376795672813
aF0.84062105956241395
aF0.60769685365806891
aF0.15310327537547561
aa(lp223
F0.52071950779942311
aF0.34299351407949819
aF0.32095113971780664
aF0.16859697308238933
aF0.14828229661414449
aF0.89089450344265286
aF0.30129637539955922
aF0.44717756806962389
aF0.96962848099415244
aF0.4791490347914128
aF0.67798815886514874
aF0.068756923694118219
aF0.57693707978773778
aF0.41386485019047264
aF0.073155376795672813
aF0.69431719497634303
aF0.29138624039155064
aF0.21027381450668986
aa(lp224
F0.22396231931363669
aF0.50648046356051191
aF0.31645433139856871
aF0.064783670359641901
aF0.53841108505678403
aF0.77794952558357555
aF0.010433391557097244
aF0.73773997902908128
aF0.95184492367020423
aF0.17171029794660203
aF0.58068461710713948
aF0.068756923694118219
aF0.28049523007779975
aF0.24779894784839204
aF0.12133466442634901
aF0.33122622188627415
aF0.27830344675154656
aF0.21027381450668986
aa(lp225
F0.33202839468769046
aF0.46886790365282627
aF0.26471068151940147
aF0.064783670359641901
aF0.5908438745808775
aF0.77794952558357555
aF0.096064195460955182
aF0.73773997902908128
aF0.93417237622173599
aF0.3133826304351971
aF0.59151184531881318
aF0.068756923694118219
aF0.41856823389300502
aF0.18192072279536198
aF0.10815354333546889
aF0.48960689257319323
aF0.3589184836423564
aF0.17670281675228092
aa(lp226
F0.68956579922476857
aF0.40987924677080834
aF0.29140883915707877
aF0.42519961484868418
aF0.54081196113040919
aF0.84578225318241085
aF0.66544042729600694
aF0.57785710186217409
aF0.93404284346187083
aF0.72565293518042251
aF0.53707695434265501
aF0.072055994167921938
aF0.65715745380101442
aF0.29168859096097838
aF0.096257613137428921
aF0.65758281882182601
aF0.3589184836423564
aF0.20376838848516854
aa(lp227
F0.81587100615582275
aF0.4209467798278887
aF0.32517199546593184
aF0.9761759400815252
aF0.42441424424236451
aF0.87244616384694651
aF0.75498365261275191
aF0.64377923847220964
aF0.94971150531240667
aF0.72565293518042251
aF0.57762246286324859
aF0.080708449214906788
aF0.66759263288055826
aF0.29168859096097838
aF0.12171062822704776
aF0.70353450572337084
aF0.44588002133443427
aF0.20376838848516854
aa(lp228
F0.57156587846503459
aF0.33304075582742287
aF0.28623108616974369
aF0.2194611608324892
aF0.42441424424236451
aF0.74525647405944961
aF0.4556053761229405
aF0.51551041596303049
aF0.9372667763536765
aF0.53356115143750993
aF0.56863419247691471
aF0.090882588348311907
aF0.52396805146607006
aF0.21134833008330256
aF0.13365054736069873
aF0.70353450572337084
aF0.44588002133443427
aF0.17904729730748375
aa(lp229
F0.24781715249194075
aF0.3558862652287304
aF0.25733260102539035
aF0.080124173105070182
aF0.50117682918728057
aF0.55587551003998681
aF0.065670291989644192
aF0.56717083974126514
aF0.8446062748013109
aF0.20505221305273813
aF0.5154224979193075
aF0.066828154073519816
aF0.29048488557094165
aF0.18969851693874809
aF0.13365054736069873
aF0.47811233600320679
aF0.35342336738794983
aF0.47638766197276539
aa(lp230
F0.38562200817598996
aF0.47060686568235821
aF0.28588204983912097
aF0.080124173105070182
aF0.46072323196752585
aF0.55587551003998681
aF0.23239299628503132
aF0.67998828272519596
aF0.97311592183560869
aF0.3829913013450057
aF0.5154224979193075
aF0.064899384452921399
aF0.44085449521789477
aF0.34193557469310848
aF0.065395834396893823
aF0.57945386554851663
aF0.39026248661582225
aF0.47638766197276539
aa(lp231
F0.77136983014704408
aF0.48372447369688748
aF0.30207817751364646
aF0.58519199718414694
aF0.23784166668638684
aF0.87774980347512954
aF0.59133890252789656
aF0.5208274028301636
aF0.97310013693976516
aF0.63049922560008809
aF0.70081203606055231
aF0.054600598736077269
aF0.79805145269273525
aF0.45551427647573017
aF0.07160756782647619
aF0.93020285969759198
aF1
aF0.20402506235598861
aa(lp232
F1
aF0.4709509877345977
aF0.3037315182289137
aF0.58519199718414694
aF0.23784166668638684
aF0.87774980347512954
aF0.99999999999999989
aF0.37591966505431557
aF0.94814766066248501
aF1
aF0.67310480958509267
aF0.053409251688967249
aF0.88126188238764502
aF0.53853279347096816
aF0.10781121139278148
aF0.93020285969759198
aF1
aF0.20402506235598861
aaa(lp233
(lp234
F0.37424951652791705
aF0.46561381765761112
aF0.05701997929858002
aF0.12734267523704354
aF0.27918466359506133
aF0.091007413281123717
aF0.070118166149042954
aF0.73773997902908128
aF0.83926803291435281
aF0.3094374391255052
aF0.58545531305073084
aF0.068756923694118219
aF0.38459048502236387
aF0.19001651735333475
aF0.089922452374481349
aF0.73973698396279852
aF0.60610817429723096
aF0.90854629885488825
aa(lp235
F0.76612877282446734
aF0.41080005449498463
aF0.42345477069787707
aF0.66387924409601684
aF0.27918466359506133
aF0.19877245875594973
aF0.62280405051787968
aF0.5010548977054341
aF0.95216366837876087
aF0.62478587510193451
aF0.61944260376256732
aF0.060674088177211469
aF0.64794982645819788
aF0.37319205530237431
aF0.11745601618190141
aF0.8987768854445789
aF0.80790236149603989
aF0.90854629885488825
aa(lp236
F0.8431263398921206
aF0.37691043811940711
aF0.29551932791345537
aF0.53962179481298711
aF0.37252393520718835
aF0.11959410300183759
aF0.69576514288292723
aF0.36604711979839444
aF0.96925656787418735
aF0.7349905491995109
aF0.24274070049636348
aF0.046608611425214642
aF0.88244370022764029
aF0.81649751669646498
aF0.10533598319685078
aF0.8987768854445789
aF0.80790236149603989
aF0.92524911150984046
aa(lp237
F0.5053064699773383
aF0.27222518421791803
aF0.39958608149532815
aF0.21315797464859318
aF0.40282088463303617
aF0.11959410300183759
aF0.30779014762133849
aF0.3974334231967756
aF0.97005882064408633
aF0.42859725173746044
aF0.33877789305276751
aF0.078292079927916619
aF0.58879582090708515
aF0.28617603836693534
aF0.15165259550525589
aF0.61053251127989328
aF0.4679957249343254
aF0.92524911150984046
aa(lp238
F0.26126441658441779
aF0.39054324058778617
aF0.30361191990807951
aF0.21315797464859318
aF0.59267626298813714
aF0.092088174822568813
aF0.13932147453688967
aF0.633619401024758
aF0.96566853699764854
aF0.18588965141626301
aF0.51412474768488348
aF0.1295297785401742
aF0.23757831639634996
aF0.15462235459836918
aF0.20020775550257802
aF0.37787638233466359
aF0.33316532033788721
aF0.42255058160108377
aa(lp239
F0.43458210760345634
aF0.47407012262557391
aF0.19580496384656287
aF0.2334977155634827
aF0.3716071432521838
aF0.092088174822568813
aF0.23118683770782114
aF0.69566102161409094
aF0.9144061161705237
aF0.26120411879742422
aF0.61205962387864554
aF0.091146102320479747
aF0.38382215092620731
aF0.33731580137871425
aF0.15480104233883868
aF0.64185272145935279
aF0.50967173824279666
aF0.94451313759991851
aa(lp240
F0.75686440506225794
aF0.47400796661184541
aF0.29324637471667914
aF0.5913326587346508
aF0.3716071432521838
aF0.08251446662496098
aF0.65103221258409028
aF0.42748819499685387
aF0.91591522047919016
aF0.79053091662320263
aF0.75944820354336962
aF0.0483476620534741
aF0.76872150445495857
aF0.43322571182609226
aF0.11905230625320798
aF0.64185272145935279
aF0.50967173824279666
aF0.94451313759991851
aa(lp241
F0.75226380293388528
aF0.35513445509225583
aF0.29788322465025213
aF0.89608943144805542
aF0.60125581577543041
aF0.08251446662496098
aF0.68581040010436478
aF0.486025107891073
aF0.96028303201157184
aF0.79178298479151976
aF0.49824975032954244
aF0.058355950122802695
aF0.71644408094934775
aF0.39421826299231333
aF0.10163306738162239
aF0.52995407624808988
aF0.26638439776959283
aF0.91449842960109828
aa(lp242
F0.47634455482130905
aF0.33055991481478564
aF0.30256591656011678
aF0.24455105934521235
aF0.62329959453172723
aF0.69373178684112258
aF0.27880977727088985
aF0.51642815242414253
aF0.93243118645114031
aF0.46989036408911244
aF0.45898529185181103
aF0.076886930036070722
aF0.56303754718870791
aF0.11808284782066153
aF0.13492586257462802
aF0.42349422350461025
aF0.24204036342100671
aF0.25686354100913639
aa(lp243
F0.2357701317169465
aF0.41108933712477036
aF0.29839434531763859
aF0.066904177322331851
aF0.62329959453172723
aF0.21392055309962299
aF0.085273764888482539
aF0.71262852029849022
aF0.95015988549728281
aF0.19847440887772611
aF0.5154224979193075
aF0.068756923694118219
aF0.27029361783774258
aF0.14829836444566061
aF0.14055691320316765
aF0.33707385709623827
aF0.24204036342100671
aF0.78785473403301332
aa(lp244
F0.21529423524316982
aF0.4393972899956104
aF0.46573018232546204
aF0.066904177322331851
aF0.63714322695595293
aF0.11769482688317179
aF0.027537110631154105
aF0.70455985623503581
aF0.95027255919702702
aF0.18810866056979814
aF0.5154224979193075
aF0.068756923694118219
aF0.27015790821753038
aF0.15893863515669177
aF0.32421635492513012
aF0.36374384606690197
aF0.3189047749926312
aF0.98710246927949341
aa(lp245
F0.44348791882368382
aF0.35200126204287852
aF1
aF0.53062934940782991
aF0.63714322695595293
aF0.11769482688317179
aF0.36975074063506264
aF0.52009742687889438
aF0.98163664633834191
aF0.32766370407645673
aF0.2701950177605667
aF1
aF0.43316112640401239
aF0.21844390509348513
aF0.99267537116147564
aF0.36374384606690197
aF0.3189047749926312
aF0.98710246927949341
aaa(lp246
(lp247
F0.40092607065241476
aF0.60034131037563743
aF0.22768133976025995
aF0.066178780325934036
aF0.45657829080297202
aF0.45082546610733021
aF0.12781005438445422
aF0.73429407863098051
aF0.89426469900095107
aF0.29778147578529757
aF0.67307719216646578
aF0.064497542545982528
aF0.47131281059817876
aF0.30686221371320693
aF0.10922738909611433
aF0.54851591348248541
aF0.51037045881608112
aF0.22759227565582796
aa(lp248
F0.73075356521530055
aF0.46187637698176509
aF0.30147140110463172
aF0.63417675893571124
aF0.45657829080297202
aF0.86122741664752422
aF0.6973455518887639
aF0.52030325720666104
aF0.94241054642797994
aF0.66869538468651268
aF0.6322452022303291
aF0.054929302839457586
aF0.66261498118630591
aF0.50599330361623995
aF0.11686619474152582
aF0.64077434962025692
aF0.51037045881608112
aF0.16839456400508468
aa(lp249
F0.78291270511163225
aF0.3495925539061519
aF0.3055849518832775
aF0.42666796817855823
aF0.4317581763411753
aF0.76989979671153441
aF0.70838149561646824
aF0.43000765706943617
aF0.94539560083330598
aF0.69788097972353569
aF0.51509242804728361
aF0.064122097650242266
aF0.7341862267911784
aF0.38893272371039894
aF0.12821921965220984
aF0.67311967320542909
aF0.43895523806863451
aF0.21054259761985888
aa(lp250
F0.55799418985407867
aF0.36431852387663399
aF0.31410426920108148
aF0.23864105621425791
aF0.4317581763411753
aF0.76989979671153441
aF0.42690002503218705
aF0.63581835672937947
aF0.94290100375979391
aF0.51529473780921498
aF0.55797828486468692
aF0.076463505035213486
aF0.51336507105760132
aF0.33184379150625909
aF0.14770274635764175
aF0.67311967320542909
aF0.43895523806863451
aF0.21054259761985888
aa(lp251
F0.24315835136992969
aF0.43332230673577754
aF0.33272413138714635
aF0.024179909930078763
aF0.61606878748047933
aF0.37705563472209858
aF0.12694473328440734
aF0.68514205659089578
aF0.93954080803773399
aF0.21098133447243395
aF0.52128240707796181
aF0.071443027284097141
aF0.2874936567834061
aF0.18292243877610351
aF0.19212304663955471
aF0.30733642092589125
aF0.23057894883021374
aF0.68514834275326442
aa(lp252
F0.37121730428426836
aF0.52309441742526763
aF0.30963490984390951
aF0.024179909930078763
aF0.55437694483107314
aF0.37705563472209858
aF0.1496238234547512
aF0.68514205659089578
aF0.93128238421074072
aF0.24524862068374104
aF0.5154224979193075
aF0.068756923694118219
aF0.48805385981239791
aF0.41418628619593584
aF0.11207217990653839
aF0.56071247561919546
aF0.3727888213773653
aF0.68514834275326442
aa(lp253
F0.71598915358526494
aF0.45297398703447933
aF0.29549225156119774
aF0.55579139865220994
aF0.47624157506141418
aF0.84275759169656528
aF0.69157491223820389
aF0.59694639067035671
aF0.94355748111363191
aF0.68518773282413681
aF0.55156063488873441
aF0.057999741872976296
aF0.67325215719568177
aF0.53439761457913526
aF0.1114948544968995
aF0.58808076356236216
aF0.3727888213773653
aF0.1943870675811129
aa(lp254
F0.77714252039113907
aF0.31977482439215416
aF0.30916789123765265
aF0.61457938025639403
aF0.47624157506141418
aF0.89486539546021915
aF0.7831537403556903
aF0.52133570467764945
aF0.95861517997272883
aF0.77789693590834064
aF0.5483994381097822
aF0.069242083982738276
aF0.72353332047140839
aF0.43780360168060461
aF0.10588764068514792
aF0.58808076356236216
aF0.32771885583250204
aF0.1943870675811129
aa(lp255
F0.54007620282801416
aF0.3375147409110304
aF0.35083225190215245
aF0.16704301137587571
aF0.54314352362349039
aF0.84961829840773695
aF0.40643670614396543
aF0.56669154210161543
aF0.94402439856915876
aF0.52737242214276092
aF0.5154224979193075
aF0.068756923694118219
aF0.62845555210492743
aF0.34589047430251529
aF0.1146407247524542
aF0.5565245300791053
aF0.2258668295557619
aF0.44519588595755494
aa(lp256
F0.21952719840765911
aF0.41228839354336966
aF0.31617318330333244
aF0.12670618750329837
aF0.66567490112013761
aF0.56412056114744358
aF0.11922300119041582
aF0.69368862691170152
aF0.88890961722028317
aF0.18979594354328783
aF0.5154224979193075
aF0.068756923694118219
aF0.25517334431300448
aF0.19762951584280991
aF0.16827008455913017
aF0.2619831247016538
aF0.16826460412359848
aF0.44519588595755494
aa(lp257
F0.43746063953162923
aF0.55989085911842751
aF0.27534194258202604
aF0.12670618750329837
aF0.61198365653891695
aF0.56412056114744358
aF0.18005847858170851
aF0.71157985333117368
aF0.95742210277078832
aF0.29082193476146734
aF0.58559085259852928
aF0.075333656521812328
aF0.50645385226522466
aF0.22654810385730983
aF0.12852526896135069
aF0.79963435538799199
aF0.79681126417199444
aF0.41576720422905639
aa(lp258
F0.7702840682710933
aF0.445033894057625
aF0.30455952466973518
aF0.62583594286897615
aF0.26240790365517075
aF0.79577574843181531
aF0.56542809590628174
aF0.49257792583911275
aF0.96973742565938947
aF0.7568912438674158
aF0.51694175414666144
aF0.075333656521812328
aF0.69642780482300903
aF0.50072177588497424
aF0.10134394424436211
aF0.79963435538799199
aF0.79681126417199444
aF0.17857630404040595
aa(lp259
F0.80262327235635234
aF0.3167040053081297
aF0.29724744334864373
aF0.56840242819748343
aF0.18336854485888432
aF0.79577574843181531
aF0.78633308256817014
aF0.4752383509614076
aF0.95857919977515182
aF0.75053183488042374
aF0.40294056621346197
aF0.068163147519442996
aF0.79879394116253677
aF0.49573572436982749
aF0.11507089540687659
aF0.82304300362422811
aF0.67590437854503993
aF0.17857630404040595
aa(lp260
F0.54251305225996349
aF0.3881691738587178
aF0.29368836631285417
aF0.0034648834828324461
aF0.18336854485888432
aF0.70102714843023817
aF0.33588173401264243
aF0.59951879980497669
aF0.94565542979268047
aF0.51602168986524832
aF0.50511952575454555
aF0.069347291961190688
aF0.54110933995213051
aF0.38313969269706721
aF0.11135099410291088
aF0.82304300362422811
aF0.67590437854503993
aF0.3478443482368343
aa(lp261
F0.24089219658323224
aF0.38257944208101102
aF0.29162981061800786
aF0.0034648834828324461
aF0.61787062983475671
aF0.70102714843023817
aF0.068603189938965997
aF0.64299000863958011
aF0.95180918057952013
aF0.24437150224222332
aF0.5154224979193075
aF0.068756923694118219
aF0.33319287934362463
aF0.16078813026175287
aF0.10314630900716835
aF0.26738049547909326
aF0.1878266742635111
aF0.3478443482368343
aa(lp262
F0.0083893819203719744
aF0.39915728172066789
aF0.29908325842217603
aF0.15676379571009816
aF0.83151792757688525
aF0.99999999999999989
aF0.0029687316056126734
aF0.73773997902908128
aF0.99515605793628192
aF0.0083306392105189642
aF0.5154224979193075
aF0.068756923694118219
aF0.01179394633655316
aF0.0099182359280314391
aF0.063970248499815016
aF0.010183199891916329
aF0
aF0.059855070868749125
aaa(lp263
(lp264
F0.40387755472631232
aF0.4898625848326903
aF0.29595503292637071
aF0.14578186322755551
aF0.42534132164460953
aF0.77126804244699787
aF0.10476378442274087
aF0.51253487431141831
aF0.87283791495459928
aF0.27947849709491462
aF0.54085387396211959
aF0.068756923694118219
aF0.53513864099173181
aF0.5956693862752086
aF0.16941992220104163
aF0.56853607701943876
aF0.55701413640583086
aF0.34549355226610517
aa(lp265
F0.76800361249946403
aF0.36511905564375829
aF0.293297466202735
aF0.496514685179411
aF0.31508557139423299
aF0.78860613120018364
aF0.43372911913518053
aF0.40400302603766713
aF0.91077374941880174
aF0.72337693638643541
aF0.21054315024827874
aF0.047929076497314885
aF0.87662513721268776
aF0.99136496018330567
aF0.14816356846269102
aF0.76166965583161894
aF0.56340451431912764
aF0.21782506920092709
aa(lp266
F0.83135547133738963
aF0.36923130740734772
aF0.31558060227873369
aF0.59335375616834396
aF0.31508557139423299
aF0.89008311484095226
aF0.59959814799581357
aF0.41665485676954567
aF0.95709012885932987
aF0.72816189397879338
aF0.41347118209796901
aF0.067968197094116903
aF0.90577681166491641
aF0.42356951970461088
aF0.092802981557355405
aF0.80597444040404875
aF0.84342511533819375
aF0.29286557135120223
aa(lp267
F0.59721905863504909
aF0.40688502140569044
aF0.31729508038757059
aF0.38257026632645896
aF0.35112119468366604
aF0.77998645112080811
aF0.43146864936010121
aF0.60727540843573169
aF0.96441761920027202
aF0.56205434786089326
aF0.5793399760424347
aF0.071294616255579313
aF0.57498493421740948
aF0.1841747052942509
aF0.12203654019795657
aF0.80597444040404875
aF0.84342511533819375
aF0.29286557135120223
aa(lp268
F0.2902652396062369
aF0.48017125324562682
aF0.26996979858752546
aF0.15564208124552878
aF0.69855758151430636
aF0.54254617106035974
aF0.17912449710509068
aF0.72343145544579424
aF0.77745297352790521
aF0.23217284788868903
aF0.55136276000944884
aF0.068756923694118219
aF0.28926653286779597
aF0.12117772204848508
aF0.17672608289565656
aF0.39769288574989126
aF0.37812504955491255
aF0.50073813926091815
aa(lp269
F0.40777600228694894
aF0.44947994257382085
aF0.2719969730950928
aF0.15564208124552878
aF0.42650810408464856
aF0.54254617106035974
aF0.19992258436496177
aF0.59035020309902952
aF0.87018478699317625
aF0.28761346802464577
aF0.5154224979193075
aF0.068756923694118219
aF0.40578617001312761
aF0.36082395484304514
aF0.13992348165195545
aF0.53823637106061828
aF0.5768112290066415
aF0.50073813926091815
aa(lp270
F0.68976015239040511
aF0.38085520496822245
aF0.29742350587351035
aF0.38310839393252338
aF0.42650810408464856
aF0.84207870073798918
aF0.62259353734854372
aF0.44553892558470082
aF0.95982838579695207
aF0.71165172103376417
aF0.59951950026640399
aF0.074477728992879785
aF0.6930933451582757
aF0.35270096793788186
aF0.11579501238850748
aF0.53823637106061828
aF0.5768112290066415
aF0.18261800532026506
aa(lp271
F0.81722597306285616
aF0.40112861316662135
aF0.31303631738365872
aF0.55695072779674371
aF0.34613675367973223
aF0.8773736366772088
aF0.82540200758765558
aF0.56647360352789011
aF0.96997789669040346
aF0.76892088143688209
aF0.59951950026640399
aF0.072827454915515635
aF0.80592962271022683
aF0.30026897850871997
aF0.090241351840734438
aF0.6350467642266352
aF0.63970076553408628
aF0.23158491091471251
aa(lp272
F0.54847974974057523
aF0.34887342849775033
aF0.30236962924176575
aF0.11143021981303154
aF0.34613675367973223
aF0.8773736366772088
aF0.32198700680885506
aF0.58425477597045838
aF0.95322495179799582
aF0.5080243627746186
aF0.51302781631236916
aF0.068654123502059933
aF0.50175135559763218
aF0.26558518567349132
aF0.1094290805117599
aF0.6350467642266352
aF0.63970076553408628
aF0.23158491091471251
aa(lp273
F0.23958746032800737
aF0.41461785373415277
aF0.31956681526821218
aF0.11143021981303154
aF0.52866750384326777
aF0.4933495218748527
aF0.098015560911041605
aF0.61747231586916773
aF0.87732587891051961
aF0.14997018358032987
aF0.5154224979193075
aF0.068654123502059933
aF0.26435223025072724
aF0.17283212610908433
aF0.18789283467095202
aF0.40374856778713097
aF0.4746749179894425
aF0.64597151671947306
aa(lp274
F0.28106248736106548
aF0.50664750227899469
aF0.35210932820272423
aF0.13407002729998282
aF0.52866750384326777
aF0.4933495218748527
aF0.097856483698179536
aF0.66842308747726153
aF0.8664151928906263
aF0.22502022599862681
aF0.58210981359580538
aF0.06266823945827063
aF0.30129319959445389
aF0.39952063853611491
aF0.20913230875051592
aF0.40374856778713097
aF0.4746749179894425
aF0.64597151671947306
aa(lp275
F0.44032594479014425
aF0.53324431693197638
aF0.32884279804940875
aF0.62905538254100357
aF0.71190548685756994
aF0.85028885067320958
aF0.44359889362325478
aF0.70042496078633609
aF0.9091832048738393
aF0.37778281921575391
aF0.72155042791325219
aF0.056579555222423042
aF0.405648062977359
aF0.32318089172577447
aF0.1601427250450429
aF0.30710836160847804
aF0.21361715733825495
aF0.25042734204899059
aaa(lp276
(lp277
F0.39075833007061139
aF0.44744240674933872
aF0.24791443627644025
aF0.078558492775949867
aF0.41709172496277958
aF0.12357614201565525
aF0.14988269157811482
aF0.66696283044784188
aF0.89482692412078324
aF0.31860185689502435
aF0.5154224979193075
aF0.068756923694118219
aF0.41474520704700518
aF0.38106705053277201
aF0.15080062643936076
aF0.55718577690955351
aF0.3678913517875651
aF0.72854158384148848
aa(lp278
F0.85251597936787726
aF0.54212685744173827
aF0.20152200151166549
aF0.55134262648339383
aF0.12227648192092733
aF0.12357614201565525
aF0.57852394832749465
aF0.33632882600296188
aF0.94831683234072606
aF0.63720704972748266
aF0.57983786503360879
aF0.073343442654467322
aF0.9001666239506072
aF0.69795737431650196
aF0.098281523840901469
aF0.9120047836546783
aF0.90413528035808988
aF0.16186787079360954
aa(lp279
F0.90588981584732653
aF0.39620861203172786
aF0.30537543746197587
aF0.57491764902882558
aF0.12227648192092733
aF0.90620846510864794
aF0.51298948889254381
aF0.25656581010207985
aF0.9644983503163489
aF0.70947001029671697
aF0.38307699335212525
aF0.078292020256638173
aF1
aF1
aF0.10157201027018214
aF0.9120047836546783
aF0.90413528035808988
aF0.15836304826128011
aa(lp280
F0.52418101207685319
aF0.26255233791052002
aF0.31841605102663112
aF0.098670625982837337
aF0.21334370132962266
aF0.82268317843005012
aF0.31529811009581488
aF0.41072062815800164
aF0.95202778366357832
aF0.36029227928528051
aF0.59013968660976379
aF0.074363980920107597
aF0.59082071347958742
aF0.42735727619408448
aF0.13154120506966938
aF0.60831077749101858
aF0.48808407979044621
aF0.1903971911297424
aa(lp281
F0.26551269046666365
aF0.39789982042428879
aF0.27774639307158278
aF0.098670625982837337
aF0.33656136943715526
aF0.25544965471268133
aF0.055083663792649479
aF0.63349855093101315
aF0.83708932420806426
aF0.17063944182877833
aF0.55985393622609281
aF0.068756923694118219
aF0.2682500107481508
aF0.23672605713809808
aF0.15748247066962257
aF0.60831077749101858
aF0.4629770706218721
aF0.80234463446190907
aa(lp282
F0.44608417653578863
aF0.47931033127565276
aF0.24856815881353839
aF0.13385953515132068
aF0.29079907272207361
aF0.25544965471268133
aF0.079307645508414432
aF0.49987488067410601
aF0.8439681056953372
aF0.22932465200031266
aF0.55985393622609281
aF0.061676287697523473
aF0.60812439399881213
aF0.55798321663043637
aF0.11928087755885065
aF0.65299862436568534
aF0.73474952839080543
aF0.80234463446190907
aa(lp283
F0.80507784655031622
aF0.4833451055690941
aF0.29240722470153818
aF0.36840592525364591
aF0.15037260975302447
aF0.85207346972808251
aF0.60388478798542899
aF0.47686836911455055
aF0.96197866098623142
aF0.78877177568478973
aF0.66068524959695762
aF0.059103316695156054
aF0.7533989169138483
aF0.63771608621566322
aF0.10424636469206232
aF0.93267458415932092
aF0.73474952839080543
aF0.18177306631495943
aa(lp284
F0.83172402863001005
aF0.42701113492174481
aF0.31113142279595196
aF0.70420732497141458
aF0.15037260975302447
aF0.89915084406851675
aF0.86202940873269329
aF0.58543179819754199
aF0.96549692416646082
aF0.73373319513702895
aF0.50143711532337654
aF0.060161412598832217
aF0.68274318320585259
aF0.53181580154619734
aF0.11009640392240491
aF0.93267458415932092
aF0.66547444406973377
aF0.16585361611454769
aa(lp285
F0.49013324156596066
aF0.33249956488184418
aF0.32334651923786639
aF0.17044154552941795
aF0.40708242774194975
aF0.88795006836624901
aF0.32998692734324286
aF0.56574746649331908
aF0.96666967855987063
aF0.34250061775346452
aF0.47538974147813823
aF0.068756923694118219
aF0.52447796740917174
aF0.19132290645518682
aF0.12764652161343271
aF0.5723900131037184
aF0.34542482362010263
aF0.18652189402429548
aa(lp286
F0.20634876398643381
aF0.38643762161956624
aF0.20366512252675933
aF0.069766238728141861
aF0.40708242774194975
aF0.081193113054292998
aF0.028454315588940571
aF0.71833536227396599
aF0.95388026948828242
aF0.23901381879882316
aF0.5154224979193075
aF0.068756923694118219
aF0.26962902781923676
aF0.16302682257051551
aF0.11099443967108574
aF0.27443717874657408
aF0.2535808502568222
aF0.87401697767225184
aa(lp287
F0.43207649589152847
aF0.47800185601792444
aF0.19000211729377731
aF0.069766238728141861
aF0.54368197286302522
aF0.081193113054292998
aF0.19034020124596354
aF0.66157064023349488
aF0.95413157259725534
aF0.37554312717220345
aF0.5154224979193075
aF0.068756923694118219
aF0.5255271564316254
aF0.31186450723805204
aF0.081624184709804606
aF0.57509007109161192
aF0.50627024178888924
aF0.87401697767225184
aa(lp288
F0.73198605337132339
aF0.4151928995783476
aF0.30221077968979959
aF0.51778930588376548
aF0.4052416084170265
aF0.93550428975986155
aF0.56141305200207992
aF0.43289045027199519
aF0.96887340839671465
aF0.67530805726537313
aF0.4893554941089604
aF0.059040441301546842
aF0.78889120592145345
aF0.5526519611942794
aF0.083979522546610397
aF0.58944213132073142
aF0.50627024178888924
aF0.14781512072585129
aa(lp289
F0.82550017424310207
aF0.41135755900575499
aF0.30900419412761104
aF0.61879416995079528
aF0.4052416084170265
aF0.97313526120578586
aF0.72356029461740679
aF0.45872478595586369
aF0.97989333271854784
aF0.84238017806054599
aF0.44702260068305555
aF0.069625959505896243
aF0.92934243342139178
aF0.66577674581033242
aF0.0858150661187536
aF0.58944213132073142
aF0.45924135335267857
aF0.109169898614808
aaa(lp290
(lp291
F0.10557519373739295
aF0.41420983251551746
aF0.34448233136738005
aF0.050490232806347179
aF0.76236451622563139
aF0.088169459815122808
aF0.075872913712089457
aF0.72226699504221159
aF0.96774957927944505
aF0.10655797264507051
aF0.53837802661836665
aF0.063778596998412457
aF0.11729107934059399
aF0.054698573764606566
aF0.10877013931607651
aF0.099286794024260105
aF0.091865411140999137
aF0.90034435998229811
aa(lp292
F0.098351324792967612
aF0.4178985870064339
aF0.367235872221502
aF0.050490232806347179
aF0.76236451622563139
aF0.94745237875074328
aF0.075760152495193633
aF0.70981582196036841
aF0.95700978833586858
aF0.10007448208066187
aF0.5154224979193075
aF0.0598726355084487
aF0.1290361883889071
aF0.11946826537258898
aF0.063970248499815016
aF0.10239946031119113
aF0.1030062629461012
aF0.62116854511634578
aa(lp293
F0.10800249494763937
aF0.44094009029032877
aF0.3804417663851305
aF0.075374480871523833
aF0.76700817498997342
aF0.87863641375174739
aF0.088303110893620612
aF0.73067989476417161
aF0.94182648554401593
aF0.12145422129356533
aF0.5154224979193075
aF0.068756923694118219
aF0.1198861323208221
aF0.12072283156302449
aF0.12868283694808233
aF0.10239946031119113
aF0.1030062629461012
aF0.62116854511634578
aa(lp294
F0.11999759726135135
aF0.43347627242691716
aF0.31898004973159
aF0.18300482722139322
aF0.7861722716122298
aF0.87863641375174739
aF0.10313757850486419
aF0.73121777590640347
aF0.98574630095600768
aF0.13160027761912657
aF0.5154224979193075
aF0.068756923694118219
aF0.12039110040459361
aF0.070458766795758687
aF0.12464748435487663
aF0.11217152306515399
aF0.12938394856806229
aF0.17962338675095429
aa(lp295
F0.13256113388652174
aF0.41991213928436633
aF0.33106288714126325
aF0.19086759883149618
aF0.76991424634279415
aF0.92862656758795947
aF0.11656833193167973
aF0.69866463985764649
aF0.98856804809121457
aF0.13421899061746723
aF0.53859942764973345
aF0.081837370496573456
aF0.13691187377212907
aF0.099000726505007075
aF0.099970462058001572
aF0.11217152306515399
aF0.12938394856806229
aF0.13183571694141455
aa(lp296
F0.15813185722324363
aF0.39448956426940485
aF0.31350059329651547
aF0.25414363608143697
aF0.76991424634279415
aF0.047377459476211636
aF0.1784261470804189
aF0.68500637139550613
aF0.98511927880921213
aF0.15984130194873986
aF0.50992725387815696
aF0.085064596500327688
aF0.15327145330699174
aF0.088450313255460891
aF0.095216674839240456
aF0.1209037732985912
aF0.10895650872871752
aF0.95742021843554259
aa(lp297
F0.14258550462331149
aF0.40264410188688937
aF0.29433190940222298
aF0.27757211357773293
aF0.7869232581388772
aF0.047377459476211636
aF0.1363738227892021
aF0.7070965321111975
aF0.95605383436188141
aF0.13043674920182363
aF0.51814148503594981
aF0.080218538061323813
aF0.13253074510381258
aF0.07425390867666487
aF0.094478610545301295
aF0.1209037732985912
aF0.10895650872871752
aF0.95742021843554259
aa(lp298
F0.10400221400792177
aF0.4182670472448658
aF0.27925724398783963
aF0.13597054001046655
aF0.78301856593539987
aF0.95003765211890923
aF0.10886492717415822
aF0.73583965655692873
aF0.96329338495816152
aF0.11273766673694331
aF0.53245666771701128
aF0.062188836512747155
aF0.10736200324528383
aF0.069765433724733553
aF0.075724970950019344
aF0.081085505632931154
aF0.06871947757527265
aF0.091493896133916036
aa(lp299
F0.10725969137237436
aF0.4125714334838933
aF0.28534108534384994
aF0.13597054001046655
aF0.77317768436797374
aF0.78567415778490513
aF0.080592918799717334
aF0.73215809152343736
aF0.96150023232410087
aF0.13209413649086732
aF0.53281502956541316
aF0.052878327977043518
aF0.11827437395322862
aF0.062663531281417939
aF0.074984770577328386
aF0.081648117093404471
aF0.06871947757527265
aF0.30899513946105317
aa(lp300
F0.11250845518446974
aF0.40559415565491413
aF0.3063155256982692
aF0.20287528773187125
aF0.75908286080342446
aF0.78567415778490513
aF0.07444420663044779
aF0.71333945285579359
aF0.94785233560965088
aF0.10365109383327432
aF0.53262027997941475
aF0.068756923694118219
aF0.11841793649270438
aF0.06687447091063628
aF0.13053867389693241
aF0.12286427813510348
aF0.094695763579423151
aF0.30899513946105317
aa(lp301
F0.096949521387546686
aF0.41584050747939882
aF0.31783215784868751
aF0.14510048569079795
aF0.75908286080342446
aF0.84438803133363538
aF0.063517164377388219
aF0.72450322786708155
aF0.96666553650142406
aF0.090249816851236828
aF0.5254868566031049
aF0.070556516723986745
aF0.10456510358822022
aF0.073707834974553257
aF0.10992184050391068
aF0.12286427813510348
aF0.094695763579423151
aF0.22696945371204436
aa(lp302
F0.092927097818406537
aF0.45002540121867057
aF0.29467172882953296
aF0.14510048569079795
aF0.76825303654002453
aF0.90460449222285666
aF0.04946646854175174
aF0.73773997902908128
aF0.97535929997033655
aF0.087664726276513269
aF0.53274713301152665
aF0.069656720209052489
aF0.094259429291065927
aF0.12003831842095732
aF0.073720374501514474
aF0.12661655081485582
aF0.13399833734651317
aF0.12614746372990629
aa(lp303
F0.11275107397923702
aF0.49128924055818629
aF0.25268599862666885
aF0.1797138560374219
aF0.76825303654002453
aF0.90460449222285666
aF0.066764980277940561
aF0.75192349060526575
aF0.93041512801414572
aF0.086816856702412862
aF0.62506301991820479
aF0.047357838099163933
aF0.12622087321814429
aF0.12003831842095732
aF0.070247229170440573
aF0.12661655081485582
aF0.13399833734651317
aF0.1239299711527934
aaa(lp304
(lp305
F0.10698357829972703
aF0.44078065003721117
aF0.35882214375636762
aF0.1931985795802145
aF0.7890431519528841
aF0.16227808479732864
aF0.085870952116009786
aF0.73773997902908128
aF0.97243279698888851
aF0.10854028964993558
aF0.54337665205487584
aF0.060476000335508789
aF0.1142256264821728
aF0.08728820065671293
aF0.079158822238642623
aF0.09626288525350496
aF0.10233787296291912
aF0.98563658881416227
aa(lp306
F0.10232167604601468
aF0.44967337724707834
aF0.44365639001147927
aF0.098558915389594492
aF0.80271114074205852
aF0.92029619151807995
aF0.084017839965360192
aF0.73773997902908128
aF0.97977587512183129
aF0.1228002529180091
aF0.51657850188290599
aF0.068756923694118219
aF0.1142256264821728
aF0.084342951338527386
aF0.079069552154484066
aF0.089003283753343876
aF0.10499362680272782
aF0.98563658881416227
aa(lp307
F0.11826205249189493
aF0.42124846362404761
aF0.32915781964943391
aF0.098558915389594492
aF0.77821475391063244
aF0.92029619151807995
aF0.12869029501242615
aF0.72163566717564853
aF0.97834740789302077
aF0.12017591416339811
aF0.5154224979193075
aF0.072764343450168564
aF0.119894049601387
aF0.071609410162468315
aF0.094899955318952955
aF0.1188483872956119
aF0.10499362680272782
aF0.20360696022440505
aa(lp308
F0.14953295819388818
aF0.3971095799929662
aF0.30284374194361391
aF0.28103198007176167
aF0.76675865940690202
aF0.95217857060203781
aF0.13107482027416087
aF0.70623001624250259
aF0.96513955709768939
aF0.14387222141718897
aF0.52463403281991983
aF0.068921151991824844
aF0.14958374869295327
aF0.067688918918713717
aF0.097180176505108851
aF0.1188483872956119
aF0.059993582471551517
aF0.11406934886099922
aa(lp309
F0.15096991312905289
aF0.40230492012464164
aF0.18795612988720217
aF0.31388959723746757
aF0.76675865940690202
aF0.023903425512311283
aF0.16022954134298414
aF0.70505847965861346
aF0.97799626708704956
aF0.13920249376417348
aF0.53135753871273628
aF0.071752349465249568
aF0.13524913826196014
aF0.044776077540307838
aF0.089472368919736367
aF0.11275421924851717
aF0.059993582471551517
aF0.98964910204607437
aa(lp310
F0.14047707285077216
aF0.40558043043185799
aF0.19471214426822187
aF0.24102559124619091
aF0.78701704462630695
aF0.023903425512311283
aF0.16022954134298414
aF0.70797521989069845
aF0.97011402265845403
aF0.13920249376417348
aF0.53135753871273628
aF0.074567619307940328
aF0.13455271887784762
aF0.036692291616325569
aF0.089472368919736367
aF0.091293980840048389
aF0.075387687655598334
aF0.98964910204607437
aa(lp311
F0.12800605020389599
aF0.41613470002259778
aF0.40930738664422506
aF0.19297747996585382
aF0.77634953664950546
aF0.94568949630126931
aF0.11510718743188056
aF0.71082053329542061
aF0.96938965685566125
aF0.13305537287562952
aF0.51229441731503644
aF0.06539956126629233
aF0.14210976822765892
aF0.091602405763773334
aF0.075947262466569118
aF0.093383490700080313
aF0.098849424952117099
aF0.9553897330250477
aa(lp312
F0.11266842780928164
aF0.43097790158034804
aF0.50881978206128964
aF0.16966066010378184
aF0.77275714626853387
aF0.94568949630126931
aF0.083747442526420995
aF0.73155401854246727
aF0.97341035601723513
aF0.11525925975039146
aF0.51689267495818947
aF0.062291816384778362
aF0.11352347930105244
aF0.097427127004376585
aF0.069591873362291168
aF0.12923224493254101
aF0.14451550059519183
aF0.9604392241917441
aa(lp313
F0.13193551920766566
aF0.43748516021427564
aF0.40534904296686586
aF0.16966066010378184
aF0.73505389878267857
aF0.88196962809780177
aF0.094467461450322615
aF0.72937774922964749
aF0.97768526740455974
aF0.14049039867573249
aF0.52623246282970437
aF0.065919740156676274
aF0.12976362960012283
aF0.071234654565077438
aF0.064912598896112519
aF0.12923224493254101
aF0.14451550059519183
aF0.9604392241917441
aa(lp314
F0.14759580299996111
aF0.4168516401854811
aF0.29922803222663652
aF0.20785669407306445
aF0.73505389878267857
aF0.88196962809780177
aF0.11828194374420212
aF0.69902961568715072
aF0.95670379719862009
aF0.15744280659071613
aF0.56839472306339622
aF0.066499253172681669
aF0.15470048126141017
aF0.10920765326783911
aF0.10530351399505916
aF0.12648159160976902
aF0.14100118948643603
aF0.17694525441410042
aa(lp315
F0.13899806987783181
aF0.39432943248515251
aF0.19020464191463982
aF0.20477553637279533
aF0.75156480536024473
aF0.040038787963812772
aF0.1121047086564205
aF0.67503635095547354
aF0.96334257413508151
aF0.12715627655093498
aF0.50866760537929756
aF0.07103839620037844
aF0.15514626920981461
aF0.13361822732133161
aF0.08494662227777558
aF0.12355776143412298
aF0.089953433189346413
aF0.1341559641516106
aa(lp316
F0.12208721244371938
aF0.39275510600185493
aF0.073809634459060108
aF0.18945044846278053
aF0.77287624208055417
aF0.040038787963812772
aF0.10753705973920719
aF0.70317546868391911
aF0.99515605793628192
aF0.10672599231531844
aF0.5154224979193075
aF0.070114729875310131
aF0.14855670949170882
aF0.03919434294293684
aF0.072938573000122617
aF0.10076836285066071
aF0.077576934029014444
aF0.081786183626048378
aa(lp317
F0.015240730930029409
aF0.39915728172066789
aF0.29908325842217603
aF0.18945044846278053
aF0.83151792757688525
aF0.99999999999999989
aF0.020909628186187385
aF0.73773997902908128
aF0.99515605793628192
aF0.01513401486399879
aF0.5154224979193075
aF0.068756923694118219
aF0.011950406376627934
aF0.0099182359280314391
aF0.063970248499815016
aF0.0071543533665746339
aF0
aF0.059855070868749125
aaa(lp318
(lp319
F0.13867637560290652
aF0.4228106417169179
aF0.27118579051258601
aF0.18185541904475605
aF0.69269125590855385
aF0.85396063528672206
aF0.10901966084560616
aF0.7312309594584232
aF0.90725845467523747
aF0.13442832552821049
aF0.57235077804702983
aF0.056546953104062825
aF0.13389178594680548
aF0.11442905092626018
aF0.0914099522102233
aF0.16664479510768018
aF0.10651540589502911
aF0.20181520426099936
aa(lp320
F0.1350493652418413
aF0.39662075929854756
aF0.26791107737299275
aF0.18185541904475605
aF0.69269125590855385
aF0.91188793685265468
aF0.11152808328342179
aF0.70656894970295647
aF0.96507934492426406
aF0.12833996333446435
aF0.52792078984413338
aF0.057718375747074724
aF0.11533298458993974
aF0.082885838552347921
aF0.069061791753872656
aF0.16664479510768018
aF0.075907393495949591
aF0.091108448454340213
aa(lp321
F0.12244463359994505
aF0.39414223253003383
aF0.29086462296017535
aF0.2304894763809513
aF0.7833723175404621
aF0.81681536659112419
aF0.10084150652358873
aF0.69800467834791413
aF0.96041227894253511
aF0.12497844072648813
aF0.52781289826326072
aF0.058889798390086623
aF0.12756981336988424
aF0.055939161238572392
aF0.096148279344545992
aF0.094248636695173943
aF0.084652952208309276
aF0.24480175425197431
aa(lp322
F0.11988938676794304
aF0.41758991683721902
aF0.30297267204314288
aF0.19946118299731114
aF0.7833723175404621
aF0.81681536659112419
aF0.087957654675892005
aF0.72155979882688581
aF0.9570072136853891
aF0.12490097400590401
aF0.5154224979193075
aF0.068756923694118219
aF0.13685621189135252
aF0.079890627722243035
aF0.09967681611855693
aF0.094248636695173943
aF0.084652952208309276
aF0.24480175425197431
aa(lp323
F0.11054207057380526
aF0.41122824661393748
aF0.31869909777348088
aF0.13137148387757888
aF0.74640089439749358
aF0.91293620917867846
aF0.081300014563951417
aF0.71751778351557349
aF0.99439487748337585
aF0.12110025897471165
aF0.5154224979193075
aF0.074864171195570747
aF0.11380981288053502
aF0.097398299375095865
aF0.089452368718404951
aF0.10513220990049302
aF0.094794429309285971
aF0.17485160731221344
aa(lp324
F0.12195677355804442
aF0.42264752110246712
aF0.23645192711018509
aF0.13137148387757888
aF0.74640089439749358
aF0.52391036824507997
aF0.06423622645615501
aF0.71454968425022714
aF0.96400816888099039
aF0.14400761955088492
aF0.5154224979193075
aF0.068756923694118219
aF0.15167552160406808
aF0.10915588884052027
aF0.082366863295246104
aF0.10513220990049302
aF0.1201421577076245
aF0.31189397015465714
aa(lp325
F0.13017813303303566
aF0.43284616044573121
aF0.21425433602286015
aF0.156538284808491
aF0.77276183220349914
aF0.52391036824507997
aF0.14066425464931145
aF0.73000311814648311
aF0.92776304260923426
aF0.13766791606368711
aF0.52566506123210666
aF0.05304880480580694
aF0.12886466160341128
aF0.085445274848364713
aF0.10278345823266327
aF0.095539423473300272
aF0.1201421577076245
aF0.31189397015465714
aa(lp326
F0.12928964726195841
aF0.40544723595628129
aF0.28210537058857338
aF0.1230926361353013
aF0.75377913049813117
aF0.87532009506854735
aF0.1355267739134107
aF0.70381507710792246
aF0.97430311112338541
aF0.12716764111774337
aF0.51016964086075123
aF0.059755087899677976
aF0.11409128218013889
aF0.052703312041983925
aF0.068439393099374884
aF0.16645087407575018
aF0.14304069735015415
aF0.18053858303444398
aa(lp327
F0.13952387998964394
aF0.41866144061409771
aF0.2919143579733291
aF0.1230926361353013
aF0.75377913049813117
aF0.91074624862656128
aF0.097429562852893198
aF0.6972832566843773
aF0.9714872624742521
aF0.11295913172614773
aF0.5154224979193075
aF0.058896083002544071
aF0.13958123243007647
aF0.10207564939708309
aF0.066949678232854928
aF0.18871486780496288
aF0.17193393213816147
aF0.23157060388131656
aa(lp328
F0.12581072754484934
aF0.43091119239339204
aF0.33251091797848242
aF0.15664971156607951
aF0.75985998219272277
aF0.86743493229686941
aF0.071613659230985505
aF0.69787081059069844
aF0.9492710096243262
aF0.11295913172614773
aF0.52085856647150375
aF0.068756923694118219
aF0.14064838343683264
aF0.096625801448463791
aF0.13952718994693469
aF0.18871486780496288
aF0.17193393213816147
aF0.23157060388131656
aa(lp329
F0.11834242736119456
aF0.42748760224640109
aF0.33041229073669198
aF0.15664971156607951
aF0.75356599953588954
aF0.86743493229686941
aF0.053043455299658981
aF0.71443970760438791
aF0.98014640467958103
aF0.13482454051092374
aF0.5348730821859965
aF0.068756923694118219
aF0.13146083709176312
aF0.13072829208058964
aF0.10512113196985419
aF0.11599528294775166
aF0.11349823573844145
aF0.2251117114905834
aa(lp330
F0.12366096388309768
aF0.42156942873399172
aF0.31376172488159187
aF0.18875907204402242
aF0.75356599953588954
aF0.92532976985992554
aF0.093280490285138074
aF0.71250608219807887
aF0.98245984621811366
aF0.14200667637467662
aF0.5154224979193075
aF0.068756923694118219
aF0.12530168910571299
aF0.12255048951542274
aF0.10416383585670837
aF0.11599528294775166
aF0.084524019909990741
aF0.13593954240392458
aa(lp331
F0.12060877562921558
aF0.40745075681802156
aF0.30640886808992068
aF0.19752180975871014
aF0.76854856836857677
aF0.89746189527446463
aF0.11508692914302884
aF0.71217973210725505
aF0.94995483732612773
aF0.11129087629225966
aF0.5154224979193075
aF0.073150604022927584
aF0.12315804874257022
aF0.082227706797227698
aF0.10612831091464406
aF0.099220018467032989
aF0.057648841686000318
aF0.14201405583901469
aa(lp332
F0.12757381332149759
aF0.38379785854323389
aF0.29984440103414695
aF0.27695144465226074
aF0.78151632436727581
aF0.89746189527446463
aF0.13733594412503078
aF0.71590859636486626
aF0.95070587055912092
aF0.12119686925736785
aF0.49484489508365193
aF0.089914620476998594
aF0.12509226592712266
aF0.02819423542053652
aF0.099806658605307047
aF0.086206000438575264
aF0.057623223427194351
aF0.14201405583901469
aaa(lp333
(lp334
F0.10601956109539527
aF0.4400715976023738
aF0.31066731558331745
aF0.17464174923829798
aF0.77902496792831433
aF0.8158039493332887
aF0.078400523512558246
aF0.71511726680582299
aF0.9640185631425856
aF0.11147898808212915
aF0.52601734134122902
aF0.061553798241956344
aF0.11635176360792324
aF0.071323251442427293
aF0.10085836233969026
aF0.091822964445277738
aF0.17426679486706648
aF0.24743250897428765
aa(lp335
F0.11698219628637445
aF0.43055092024166952
aF0.2613925843895466
aF0.17464174923829798
aF0.7699763166534157
aF0.8708479735555209
aF0.12471732634854474
aF0.7221252193218195
aF0.95530143457028616
aF0.13970343425913384
aF0.5154224979193075
aF0.056188458236601568
aF0.11868043405557194
aF0.061230379373056885
aF0.07574333347569287
aF0.089046516769176465
aF0.092497334412846771
aF0.12573901967469564
aa(lp336
F0.15156636775339605
aF0.42079049356516585
aF0.28961987622558871
aF0.21400732340462944
aF0.7699763166534157
aF0.89133169199018014
aF0.17929761838026506
aF0.71295847292528147
aF0.95641740054157909
aF0.14652212267246006
aF0.50311173131178788
aF0.070247101273683457
aF0.13427406355946375
aF0.051073265091532441
aF0.083550901815690776
aF0.12383813956928283
aF0.10772327462490675
aF0.13627446982181524
aa(lp337
F0.1453568224574906
aF0.40054032747942736
aF0.30607779567394305
aF0.22638347739436146
aF0.73390160963672024
aF0.9045631794305623
aF0.1341884360136317
aF0.70643669782456875
aF0.94645101432803669
aF0.13370876141524685
aF0.4797186601624393
aF0.081988686166752325
aF0.14200231678738726
aF0.12189000752142522
aF0.11675998137488205
aF0.12383813956928283
aF0.10772327462490675
aF0.13627446982181524
aa(lp338
F0.1035780592986008
aF0.42503050212640808
aF0.28632018992447794
aF0.038985226797948511
aF0.73390160963672024
aF0.89571729043789161
aF0.073031932963401491
aF0.71076180299911496
aF0.94017015037763629
aF0.12244878840489341
aF0.5154224979193075
aF0.068756923694118219
aF0.12779555880245635
aF0.12189000752142522
aF0.099586964694057395
aF0.12272873607595325
aF0.1167433123670816
aF0.13333794764765766
aa(lp339
F0.11713850655474305
aF0.43110315187318304
aF0.28758826968777601
aF0.038985226797948511
aF0.7554451977794403
aF0.85641288706973051
aF0.14700965176588029
aF0.71995754383431987
aF0.96193376034871503
aF0.13260028160785303
aF0.51750163020727069
aF0.071626331040262461
aF0.12571647593237759
aF0.057049744870785644
aF0.09189525919857483
aF0.13291272732320125
aF0.1167433123670816
aF0.19275318157671389
aa(lp340
F0.1526619913760236
aF0.42281811395195523
aF0.28807080163737281
aF0.16724313473693728
aF0.75008521349222224
aF0.85641288706973051
aF0.15249677743129239
aF0.70970768075257273
aF0.96193376034871503
aF0.13733172455371728
aF0.53059954307032309
aF0.071626331040262461
aF0.15326161976388716
aF0.13499454607871336
aF0.08137642071848164
aF0.13655785849036617
aF0.11149420598288751
aF0.19275318157671389
aa(lp341
F0.15466714575979329
aF0.44586643928539771
aF0.26408955653496913
aF0.11378578988024404
aF0.75008521349222224
aF0.91471737724686442
aF0.13952492047568896
aF0.73163391588160831
aF0.95678708305601001
aF0.16588350989957318
aF0.54189662892561485
aF0.066241462930233155
aF0.16945068352749776
aF0.15578796805591857
aF0.066678310676889133
aF0.13655785849036617
aF0.13167435345131651
aF0.079942978912750345
aa(lp342
F0.13656622479737929
aF0.43967568282619768
aF0.32772156262650132
aF0.11378578988024404
aF0.77589906708405265
aF0.93343506204937765
aF0.12699290964290846
aF0.72588916810369764
aF0.9738518300215997
aF0.14988686234064125
aF0.52865956342246123
aF0.068180380976460911
aF0.14782171055533702
aF0.063850754392221001
aF0.068152148691857303
aF0.12460996465009
aF0.13167435345131651
aF0.34248063993542111
aa(lp343
F0.11286150804197358
aF0.40326968404479724
aF0.34049661875506537
aF0.16708873692409684
aF0.75019118379057337
aF0.89014353055843676
aF0.082896831134581572
aF0.72127084435364019
aF0.97193825270154421
aF0.10389065269859006
aF0.50174521847075237
aF0.068862224815554068
aF0.117828617877693
aF0.052715954227099182
aF0.088363192937518362
aF0.12460996465009
aF0.11138349262511754
aF0.34248063993542111
aa(lp344
F0.091812734332344395
aF0.38544786303444667
aF0.32394112528598401
aF0.18096417978374124
aF0.75019118379057337
aF0.89014353055843676
aF0.067139889735094105
aF0.67929758814007757
aF0.99523371837589769
aF0.079297324129677674
aF0.49554226676637381
aF0.081027419369955528
aF0.09584596157264158
aF0.064201859747769582
aF0.092066452280030589
aF0.12235612749140082
aF0.10465230645888965
aF0.18611065311964126
aa(lp345
F0.095885948797009887
aF0.4115381162305482
aF0.33940403910011341
aF0.18096417978374124
aF0.7920664331940559
aF0.98370906712103978
aF0.061366482387406607
aF0.71521123082560878
aF0.99671360026705402
aF0.111226224477308
aF0.5351324353688216
aF0.082822444083689287
aF0.10773743791973653
aF0.058549892682177272
aF0.08498390087170124
aF0.083122348053275119
aF0.07474456941956914
aF0.15801124720011772
aa(lp346
F0.13462300607852451
aF0.40760870487662781
aF0.30787569093377359
aF0.34193243983634225
aF0.80189184607571073
aF0.98370906712103978
aF0.15130757708188916
aF0.73775833284008663
aF0.99213734803501763
aF0.12519508438434118
aF0.54673122298895083
aF0.074486227485651521
aF0.11551235204130786
aF0.045620387126974069
aF0.076193603721813233
aF0.083122348053275119
aF0.02303611939315197
aF0.080398737733954645
aaa(lp347
(lp348
F0.14100070070290655
aF0.41411884735447319
aF0.23643386142575884
aF0.25994606302318379
aF0.79982270463510563
aF0.54352312494456068
aF0.14936176317900565
aF0.70970387684383651
aF0.96477284142429043
aF0.13204430421613766
aF0.52556057449317684
aF0.057907559153644955
aF0.12580198375142906
aF0.044000702437165883
aF0.069341753871627068
aF0.11142109396143179
aF0.15384744401615141
aF0.13878570371489218
aa(lp349
F0.13102084303623279
aF0.41161367687075057
aF0.40787483016770376
aF0.25994606302318379
aF0.79982270463510563
aF0.9447168807116112
aF0.1340949916191029
aF0.71454679373310137
aF0.96477284142429043
aF0.11771636992940775
aF0.53582972643194171
aF0.057907559153644955
aF0.12516456182040836
aF0.044000702437165883
aF0.076868731993228315
aF0.11003868164131467
aF0.077791941389017114
aF0.96639448543657347
aa(lp350
F0.13923296021613019
aF0.40944897784267648
aF0.42304811163066713
aF0.23533510942456801
aF0.7410257035298895
aF0.89693258335707371
aF0.1340949916191029
aF0.70853921184486657
aF0.96383878425768266
aF0.11771636992940775
aF0.50806573989463411
aF0.079147781048431523
aF0.12516456182040836
aF0.079976559598769592
aF0.096210468523555581
aF0.16286460476556081
aF0.14162733683142217
aF0.96639448543657347
aa(lp351
F0.13436791549932525
aF0.39485780696864875
aF0.18982524575691698
aF0.231494288852052
aF0.7410257035298895
aF0
aF0.13216255506662475
aF0.70955993681570395
aF0.96765073545622315
aF0.12077153904329606
aF0.4931424588837276
aF0.080082711029610731
aF0.13221916573443471
aF0.053893371274524385
aF0.086479710026241774
aF0.16286460476556081
aF0.14162733683142217
aF0.99999999999999989
aa(lp352
F0.11876036221898521
aF0.44756260754822219
aF0.16604509122114477
aF0.069993901241007822
aF0.79765374185456062
aF0
aF0.098018853613751927
aF0.71604962792337334
aF0.97724153949471693
aF0.11140354653658978
aF0.5154224979193075
aF0.070280370539407971
aF0.14726836135887397
aF0.13797235025870921
aF0.081051878126618987
aF0.12216394856369225
aF0.15679296566887177
aF0.99999999999999989
aa(lp353
F0.13730446462446277
aF0.44347536211026489
aF0.284244839493559
aF0.069993901241007822
aF0.79146371097547341
aF0.81385304504794431
aF0.12922541412674629
aF0.70959127285732804
aF0.98885953168336271
aF0.16900997664080097
aF0.52257478340176244
aF0.068936972357914725
aF0.15599596099246771
aF0.11134983287602371
aF0.081953983643983874
aF0.12216394856369225
aF0.15679296566887177
aF0.094033348410723361
aa(lp354
F0.13647770322022407
aF0.39263518161622069
aF0.29653661185066971
aF0.20749962720042511
aF0.73837710274025081
aF0.65358460445365929
aF0.10393379240595982
aF0.70285843410039528
aF0.97832169749456166
aF0.12979953367156338
aF0.51100171947910222
aF0.076228503327887151
aF0.13589126057139644
aF0.047578347162421292
aF0.094414370968165143
aF0.16449149986085218
aF0.13463507461825952
aF0.30345229975101273
aa(lp355
F0.12669310704323705
aF0.40423313411987311
aF0.27749367090193328
aF0.20749962720042511
aF0.73837710274025081
aF0.65358460445365929
aF0.098765494804503112
aF0.71362804686207826
aF0.97095166537113986
aF0.12601857465344796
aF0.51100171947910222
aF0.064689290129888818
aF0.1293809282254833
aF0.074147168676669803
aF0.0738619192120996
aF0.16449149986085218
aF0.13463507461825952
aF0.30345229975101273
aa(lp356
F0.11225612460429781
aF0.42826695570904133
aF0.41756006645282445
aF0.11345800284323876
aF0.77933664455617635
aF0.92123969477941792
aF0.09757031463940477
aF0.73213224111595865
aF0.96240008438434821
aF0.12580613780033284
aF0.54979939511595388
aF0.064689290129888818
aF0.12764848909883469
aF0.09633448330775482
aF0.08586521479947902
aF0.096020530456623787
aF0.061209121239101785
aF0.9792946922599729
aa(lp357
F0.11676242232839619
aF0.4191914902887578
aF0.4312620131748971
aF0.11345800284323876
aF0.76532450831450272
aF0.13753549689243827
aF0.099012570489288326
aF0.72158662915959482
aF0.94464960050088176
aF0.11449066391301678
aF0.51879670679591117
aF0.078782472313605162
aF0.12291273976283132
aF0.10630171631217848
aF0.13443083019872748
aF0.11458887756653191
aF0.093063171420211727
aF0.9792946922599729
aa(lp358
F0.13973705728051289
aF0.40933536453290414
aF0.15060119757025286
aF0.17633540239546053
aF0.76532450831450272
aF0.13753549689243827
aF0.13400943376509075
aF0.68601385945890248
aF0.90363329917167856
aF0.12778502409184006
aF0.51725479275182296
aF0.078782472313605162
aF0.16126963282823664
aF0.12882748899168792
aF0.12607250264582245
aF0.11458887756653191
aF0.093063171420211727
aF0.91871636245300303
aaa(lp359
(lp360
F0.13470286826196859
aF0.42015014252307031
aF0.33198929444920511
aF0.24077047939878859
aF0.77364093559738312
aF0.92587531651363975
aF0.12161200367296923
aF0.71073847871717344
aF0.97289677174269495
aF0.13231279642287219
aF0.52438640679453163
aF0.063530674007038518
aF0.14372188667248742
aF0.10830557294901969
aF0.098383915679225317
aF0.10733413142171155
aF0.12570916391769488
aF0.32260839133103847
aa(lp361
F0.12057807009030642
aF0.39225097949888427
aF0.27847810930971767
aF0.24077047939878859
aF0.77849004446912151
aF0.92587531651363975
aF0.11556201274867647
aF0.70035108898394505
aF0.96829017907301262
aF0.11599619397340045
aF0.50141534422631073
aF0.058125187373651646
aF0.11324051171795052
aF0.046229578672756455
aF0.066926618422337741
aF0.10797873377394809
aF0.071795711486746058
aF0.1117119140912487
aa(lp362
F0.12934580231348186
aF0.42060582922857054
aF0.32096524000678417
aF0.11813318687119415
aF0.78079450866316225
aF0.84299522795595128
aF0.14464846508305726
aF0.7146062180418451
aF0.96213590235626134
aF0.12999495559659907
aF0.51038660751580101
aF0.042871127282113196
aF0.12516769512644502
aF0.079432174121734075
aF0.072871112343600747
aF0.10797873377394809
aF0.10010952015280575
aF0.43183710813630188
aa(lp363
F0.12929846396060846
aF0.42188073411083715
aF0.33936286749307221
aF0.11813318687119415
aF0.77959314382276412
aF0.84299522795595128
aF0.13183179132878101
aF0.71476221587390787
aF0.95988358055283773
aF0.13131320428003151
aF0.52881983624876794
aF0.068756923694118219
aF0.12964690691928771
aF0.079432174121734075
aF0.11016540893062735
aF0.10310964699930908
aF0.10010952015280575
aF0.43183710813630188
aa(lp364
F0.12287553077954068
aF0.41093931911266152
aF0.29316132246262955
aF0.029948037438744836
aF0.75940541775829495
aF0.8092205108619418
aF0.10432143458225943
aF0.67936156552020877
aF0.98935407324327063
aF0.10625750601370919
aF0.5154224979193075
aF0.068756923694118219
aF0.13302984238409671
aF0.11784537762686022
aF0.10124173048908983
aF0.15147780268306529
aF0.16281027401828871
aF0.10986895729419441
aa(lp365
F0.11954993706180288
aF0.41767955931884526
aF0.28788822425465715
aF0.029948037438744836
aF0.75940541775829495
aF0.8092205108619418
aF0.10939771081856514
aF0.70137386869890495
aF0.97248076703791997
aF0.12201512249457937
aF0.51900564995426801
aF0.067250253783494723
aF0.12722651734079357
aF0.083983571002669982
aF0.097177841250671762
aF0.15147780268306529
aF0.16281027401828871
aF0.17431674081529697
aa(lp366
F0.12771761454959413
aF0.39985350497203515
aF0.29334400274790479
aF0.23245250844750975
aF0.78568069036563504
aF0.14579974087782455
aF0.12462653952748229
aF0.68979871797750691
aF0.95628870313814918
aF0.12243740443724764
aF0.51435375989310295
aF0.046705175098999477
aF0.12445273679250016
aF0.07460832162557357
aF0.13334212206683743
aF0.12385934355182021
aF0.10233422269960296
aF0.81487170424219668
aa(lp367
F0.1293097351997578
aF0.40141186174888988
aF0.28146995883873938
aF0.24275450760619266
aF0.77809255966289748
aF0.14579974087782455
aF0.11729873812433692
aF0.70898620116119926
aF0.97078435576375888
aF0.12378408406702456
aF0.49667636423616046
aF0.052809027927109259
aF0.13025361049616258
aF0.078848259009457147
aF0.069780980897976033
aF0.12385934355182021
aF0.10233422269960296
aF0.81487170424219668
aa(lp368
F0.13128582540708256
aF0.41525833811371932
aF0.3188703725981531
aF0.19224508601850779
aF0.7755059399905877
aF0.9438403426931955
aF0.15027976071103563
aF0.72759431318253298
aF0.97225730219973383
aF0.13219801210887189
aF0.52216889709263159
aF0.059568435970697831
aF0.11715885173810753
aF0.078848259009457147
aF0.074721180606785051
aF0.12032271967130329
aF0.075070884228474979
aF0.29077077641219623
aa(lp369
F0.14116729360738151
aF0.41104351511042309
aF0.33388590935306911
aF0.19224508601850779
aF0.7755059399905877
aF0.9438403426931955
aF0.17061226080481209
aF0.70829198796071657
aF0.95819146150309575
aF0.13255001422981749
aF0.5154224979193075
aF0.072362222870568788
aF0.11468433555153737
aF0.060684526467592162
aF0.10434551132071754
aF0.12965840205661047
aF0.10395033831996682
aF0.29077077641219623
aa(lp370
F0.13298820326303579
aF0.40218916044789221
aF0.3117282714697473
aF0.24469627021407359
aF0.79425380311432825
aF0.95050968347097986
aF0.13553397208089799
aF0.69782860730826435
aF0.99689440805536422
aF0.12536940582800743
aF0.49028477131546738
aF0.079686138955913935
aF0.12067149845503178
aF0.07013690188831638
aF0.082801544027151786
aF0.12965840205661047
aF0.10395033831996682
aF0.10029376945004975
aa(lp371
F0.11880895522049918
aF0.39076265782620007
aF0.32494650875600206
aF0.24469627021407359
aF0.78394530392835682
aF0.95427449120428443
aF0.10309565550541622
aF0.69366356393009354
aF0.99903807205325701
aF0.11647374959155755
aF0.50722328966539854
aF0.079686138955913935
aF0.12225188885806862
aF0.075852287467197188
aF0.089983630289325309
aF0.089058743198241891
aF0.065023446876417021
aF0.14006725707482492
aa(lp372
F0.12449859262654257
aF0.40282411680394387
aF0.30457876595403371
aF0.2274274391960277
aF0.77440922729347073
aF0.16787432784634437
aF0.10309565550541622
aF0.70096437932272249
aF0.96686107495771945
aF0.11454536977032716
aF0.54090238384726552
aF0.075460196844838151
aF0.13013960547605155
aF0.08015810110552421
aF0.094505693534490343
aF0.11357529094546301
aF0.059270977298689985
aF0.87120171015884329
aa(lp373
F0.13571489468987641
aF0.42370373233936542
aF0.42345817404564051
aF0.13527956840596306
aF0.77440922729347073
aF0.16787432784634437
aF0.11828864179144635
aF0.69820751175447893
aF0.93668087823224189
aF0.13325636812184405
aF0.5157222192343367
aF0.068756923694118219
aF0.16862342529246693
aF0.098759019378184557
aF0.11815625142111705
aF0.11357529094546301
aF0.1440677537581285
aF0.87120171015884329
aa(lp374
F0.125791027350943
aF0.43586053997141599
aF0.72894525057896031
aF0.13527956840596306
aF0.78967464412885158
aF0.94527522137721032
aF0.12835159912973967
aF0.69180726346972776
aF0.98053726301027189
aF0.14465777725947587
aF0.47890045355262578
aF0.097877201913453296
aF0.13750325876282277
aF0.082978832294939339
aF0.3022530602241878
aF0.10795332809912211
aF0.1440677537581285
aF0.79957108425204948
aaa(lp375
(lp376
F0.13691073665175957
aF0.43729806250665365
aF0.25066803057666648
aF0.19424385101455932
aF0.74048362456066896
aF0.62348106502616996
aF0.11135028643895337
aF0.69851248769514085
aF0.96104635409637407
aF0.13338789432855802
aF0.53930556060273138
aF0.062242507559578386
aF0.15224170848099666
aF0.15521633381857391
aF0.074723388903444335
aF0.13291518248688466
aF0.10975552450883606
aF0.16663314906181539
aa(lp377
F0.12635582063930112
aF0.42081106680715702
aF0.19427522746456258
aF0.12354919937576531
aF0.79281073378535727
aF0.09810484948817233
aF0.12142249834408245
aF0.70903506333020383
aF0.9590843356535721
aF0.13216799614411229
aF0.5133410339850889
aF0.054627121168321108
aF0.13621797733700308
aF0.098264084909586269
aF0.077543827594944131
aF0.1094852790361045
aF0.089056023750197763
aF0.97932506086107907
aa(lp378
F0.108494478491495
aF0.41214526748841629
aF0.20099284638775802
aF0.12354919937576531
aF0.77938667022780217
aF0.06247957584389352
aF0.1038371847101259
aF0.70777286959995722
aF0.93619667167453235
aF0.11311396939684114
aF0.5154224979193075
aF0.050405829518508992
aF0.1093028327240049
aF0.058494115208750364
aF0.082463113394381338
aF0.1094852790361045
aF0.10557191761118205
aF0.97932506086107907
aa(lp379
F0.14186029498714375
aF0.40271019772596267
aF0.30771090104728976
aF0.19502128950506742
aF0.73019758045166394
aF0.06247957584389352
aF0.10477407450788251
aF0.69382746002727247
aF0.95220891330338875
aF0.13101388143617038
aF0.51300128625054597
aF0.072454561109784252
aF0.15003985625791189
aF0.13752154797799934
aF0.10330914825079573
aF0.13881827185808079
aF0.10557191761118205
aF0.95971983121885307
aa(lp380
F0.15778463194785408
aF0.4093257545570117
aF0.32020840195226119
aF0.21221344570965175
aF0.73019758045166394
aF0.89521265691260865
aF0.12230096483700889
aF0.66036652199895329
aF0.9773208259240308
aF0.14639148454807632
aF0.53610323952919725
aF0.077195416213059767
aF0.17792065294277781
aF0.14890537474958401
aF0.1015811233040872
aF0.13881827185808079
aF0.1044197917714305
aF0.16116564442706666
aa(lp381
F0.14369486277232552
aF0.41157708624798711
aF0.30934073549869473
aF0.22194899856018294
aF0.7688193008685329
aF0.89521265691260865
aF0.11475543428651655
aF0.68755935266684154
aF0.96093659113294827
aF0.12009624196708325
aF0.53094508169857324
aF0.074825717573604955
aF0.15300364660661009
aF0.094531136150882739
aF0.1069153689717932
aF0.13893592455943241
aF0.12356713518771194
aF0.16116564442706666
aa(lp382
F0.1427593814534196
aF0.39393170096601349
aF0.29433870701809806
aF0.25198522525360367
aF0.75374211977896655
aF0.93268267825070761
aF0.12862760252657465
aF0.69050209518488426
aF0.95684993952740949
aF0.12212714852022959
aF0.51690677330722878
aF0.048276253843239789
aF0.12485830366016909
aF0.0688179243430216
aF0.088850594058334856
aF0.13893592455943241
aF0.12356713518771194
aF0.13215438026713175
aa(lp383
F0.13436979577045555
aF0.38481790206726368
aF0.28586781502134334
aF0.24146354696881028
aF0.75374211977896655
aF0.93268267825070761
aF0.1231497273053169
aF0.69308396626332913
aF0.96913335968485703
aF0.12025999551440235
aF0.52666060466647568
aF0.065411804709881616
aF0.11617390003794964
aF0.055790967201621154
aF0.078284814341188821
aF0.133171955955521
aF0.091949288081151048
aF0.11565521604096318
aa(lp384
F0.13366067417993344
aF0.4055448972076629
aF0.17448619099676602
aF0.20446991579483226
aF0.77155256126505622
aF0.086189802873722021
aF0.12314197131886948
aF0.70092722261248963
aF0.96119094825240203
aF0.11865367871555442
aF0.51737999715558491
aF0.065411804709881616
aF0.12107620752252921
aF0.088933103990048001
aF0.072664411173433446
aF0.12128081800605195
aF0.091949288081151048
aF0.11820208655714348
aa(lp385
F0.11937639299448029
aF0.4236157076566236
aF0.21536396323549684
aF0.15774864325328888
aF0.78084644062619646
aF0.086189802873722021
aF0.12491856493651657
aF0.71808550812069938
aF0.94657131099597325
aF0.10909434696618021
aF0.51987136155529545
aF0.068756923694118219
aF0.12107620752252921
aF0.089634090185677001
aF0.11128068325536974
aF0.10601661625506703
aF0.073580797981557033
aF0.98619876503103077
aa(lp386
F0.11326244938532744
aF0.40999124171586898
aF0.33813113444696979
aF0.15774864325328888
aF0.7653941699800566
aF0.10805601746976479
aF0.10718656395783266
aF0.6972177653060434
aF0.98492645330133233
aF0.10567791397519354
aF0.51987136155529545
aF0.079563122865422164
aF0.10079610172773532
aF0.087565306600185036
aF0.081391251885133048
aF0.12100427786988166
aF0.10311364967051746
aF0.98619876503103077
aa(lp387
F0.14021933161279654
aF0.38791329880238651
aF0.32351768154011407
aF0.26013362556500108
aF0.75706006454307728
aF0.91314868586706699
aF0.11807804103157474
aF0.66779261969441406
aF0.99393566367650854
aF0.12361556490710442
aF0.53519632848256316
aF0.08278531182711972
aF0.14006726116325569
aF0.0919705952870956
aF0.081298386988434279
aF0.12276900915286459
aF0.10311364967051746
aF0.15029102269281647
aa(lp388
F0.1514444279610303
aF0.41399006760423929
aF0.30226096816861797
aF0.25211442147600738
aF0.75706006454307728
aF0.91314868586706699
aF0.14118598877084401
aF0.70063300878221213
aF0.96774910687745841
aF0.1405682433774465
aF0.57881995494467597
aF0.083011715226929045
aF0.15853536961943485
aF0.098901107955907591
aF0.086287002578271044
aF0.12276900915286459
aF0.084675380086202179
aF0.15029102269281647
aa(lp389
F0.13551369550161674
aF0.47959358633347432
aF0.22535429202613316
aF0.25211442147600738
aF0.82642570921975544
aF0.92120281303166363
aF0.12430902812589487
aF0.76042463158881624
aF0.93176564664841888
aF0.13132186154431325
aF0.61389722141819991
aF0.02545214727117219
aF0.13826248017671006
aF0.10798714021020295
aF0.053025833473112252
aF0.10346705889615498
aF0.051189631328286453
aF0.07707251335076358
aaa(lp390
(lp391
F0.11256719154483412
aF0.41846924343865
aF0.27326022324940064
aF0.21362436716890881
aF0.76363197908611713
aF0.81817263781462468
aF0.080522649162537152
aF0.704607163209514
aF0.96854721518304387
aF0.092310707195893474
aF0.51484712727262161
aF0.060214978977219627
aF0.11244898107299919
aF0.077986366923237391
aF0.092801807531475863
aF0.13257887284539169
aF0.11279914446028608
aF0.11238387998873925
aa(lp392
F0.12811462260603174
aF0.41193484967063182
aF0.27144350922254251
aF0.21362436716890881
aF0.76163775767805419
aF0.91687197151726019
aF0.095334572110122445
aF0.70569847905987682
aF0.95912158124300706
aF0.13098348581773123
aF0.52857612628439421
aF0.054692374800256773
aF0.14610049543804063
aF0.064826002739224342
aF0.067764408435040599
aF0.10216685064436107
aF0.10886242392409307
aF0.12336342357354531
aa(lp393
F0.13512805613646395
aF0.39713976086785208
aF0.28929082725875666
aF0.22490883053540292
aF0.72753986764875567
aF0.88960538693670455
aF0.10907127901548916
aF0.69665955553892511
aF0.96060551932771587
aF0.12648623674233278
aF0.52760760240552207
aF0.056164380512415499
aF0.14804911107572763
aF0.071715429046383006
aF0.076649570135708084
aF0.12913728336298547
aF0.12465569572027231
aF0.23944374343224123
aa(lp394
F0.14339674549101655
aF0.39411409813890685
aF0.30717371580596858
aF0.22490883053540292
aF0.72753986764875567
aF0.88960538693670455
aF0.11783785814937162
aF0.68649731626106369
aF0.96688062115256845
aF0.12074309548105912
aF0.51026559637819702
aF0.077849498960146438
aF0.15363597342645274
aF0.10542435392320718
aF0.082332023348938049
aF0.1468030340468644
aF0.12465569572027231
aF0.23944374343224123
aa(lp395
F0.13913536059827547
aF0.41280596229570415
aF0.31328789976529342
aF0.17096643319229574
aF0.74659835635824356
aF0.94046670522192333
aF0.12517198062104798
aF0.71683914291958195
aF0.99120632595029912
aF0.12074309548105912
aF0.51669394112594957
aF0.07982446871357804
aF0.15577427631078311
aF0.090842399184950851
aF0.082178861586605645
aF0.1468030340468644
aF0.13379001802217028
aF0.1221264427030018
aa(lp396
F0.096574912278017053
aF0.4106341510478142
aF0.31358960559641025
aF0.17096643319229574
aF0.76119081147914813
aF0.91034829410355378
aF0.048704843069547393
aF0.70720530236851664
aF0.96932186009581056
aF0.083186054475066148
aF0.5154224979193075
aF0.068756923694118219
aF0.11571370169231487
aF0.080297146938502706
aF0.09117338740317471
aF0.10997340310333231
aF0.13379001802217028
aF0.18216836682469534
aa(lp397
F0.14210078036638635
aF0.41310918993433282
aF0.2844677293305149
aF0.20682247071400903
aF0.76119081147914813
aF0.82365876330585241
aF0.1102513387755408
aF0.70244007023996446
aF0.93917323061849767
aF0.14567905647036106
aF0.5302509518270887
aF0.058066022355250969
aF0.15253705947157944
aF0.082002690671705181
aF0.097127469983087772
aF0.13249757049244915
aF0.11410938729651024
aF0.18216836682469534
aa(lp398
F0.14695468641986736
aF0.41275164011326682
aF0.27361581439396937
aF0.1143029172040383
aF0.76527109382061886
aF0.82365876330585241
aF0.14707976198780684
aF0.702380111704344
aF0.95734446488778879
aF0.14710788326442858
aF0.5154224979193075
aF0.058066022355250969
aF0.15754556280060866
aF0.078246117280154556
aF0.068290877564402233
aF0.13249757049244915
aF0.11410938729651024
aF0.15809145148831899
aa(lp399
F0.098936287265457182
aF0.40023758043093138
aF0.29352502523137308
aF0.1143029172040383
aF0.77811083361360034
aF0.95821365531824365
aF0.071737530548008632
aF0.70898937894050751
aF0.9818578467814767
aF0.10943064692873776
aF0.50462088814194628
aF0.063043643406243258
aF0.11740185782846543
aF0.057079786378476542
aF0.063970248499815016
aF0.10263957509222366
aF0.092683757538622583
aF0.13141519334900514
aa(lp400
F0
aF0.39915728172066789
aF0.29908325842217603
aF0.16473354361896134
aF0.83151792757688525
aF0.99999999999999989
aF0.00066011727008707943
aF0.73773997902908128
aF0.99515605793628192
aF0
aF0.5154224979193075
aF0.068756923694118219
aF0
aF0.0099182359280314391
aF0.063970248499815016
aF0
aF0
aF0.059855070868749125
aaa(lp401
(lp402
F0.11244613868033289
aF0.46611612014727055
aF0.21724331149616777
aF0.11295364604423223
aF0.78529462634316394
aF0.57752771347797882
aF0.11492539719994901
aF0.72846974536533304
aF0.94253205887843228
aF0.12295953860984628
aF0.52097636500224676
aF0.060096681474739802
aF0.11166982917971452
aF0.11815782959765384
aF0.075316873894234665
aF0.1174078354200884
aF0.20591164164568362
aF0.17858094267858432
aa(lp403
F0.11792337032893983
aF0.41455576673214356
aF0.39719450083327634
aF0.11295364604423223
aF0.75235541897042024
aF0.93055522156982828
aF0.10543222810043265
aF0.72226712402022564
aF0.97114650273126801
aF0.11623248623066869
aF0.52019676442700358
aF0.060697740619808219
aF0.12608148231780561
aF0.091170885832166149
aF0.071970558285945979
aF0.10463115080450419
aF0.11189731760515982
aF0.96540774258208817
aa(lp404
F0.14468419509890923
aF0.39932128195637601
aF0.41794588606821448
aF0.21360739269739498
aF0.72887917521353507
aF0.048263930874808514
aF0.086361792424288847
aF0.64418192773062477
aF0.96830078669308473
aF0.11482491145017394
aF0.5231725254868399
aF0.066648695377291914
aF0.16064174596649464
aF0.12245612834188581
aF0.088337216031833601
aF0.16569085263083203
aF0.14041886740869419
aF0.99175433527084778
aa(lp405
F0.14872255323014055
aF0.40608389354846547
aF0.17297646697842284
aF0.21360739269739498
aF0.72887917521353507
aF0.048263930874808514
aF0.10237656071194678
aF0.67683763642751982
aF0.71343452455951195
aF0.14155831763673926
aF0.52715617740942744
aF0.07041887473576372
aF0.13059000349961938
aF0.097026524567350697
aF0.10383975727404773
aF0.16569085263083203
aF0.14041886740869419
aF0.99175433527084778
aa(lp406
F0.13306443812757179
aF0.39745509969529647
aF0.19043193589538529
aF0.1863446339367574
aF0.7615967035971889
aF0.10591650673827802
aF0.14248314528924852
aF0.70667715777996731
aF0.9782345890856784
aF0.13228584702515006
aF0.51403914495958569
aF0.083446637848970953
aF0.12247652274802845
aF0.058821062023638147
aF0.087083985502283162
aF0.11984039090334536
aF0.092645921103859455
aF0.86081957758785654
aa(lp407
F0.14110637603814846
aF0.40625160868879978
aF0.30559619226559359
aF0.1863446339367574
aF0.7615967035971889
aF0.9183241363425354
aF0.14757225025605017
aF0.71263062569184155
aF0.95620290790913176
aF0.13983028950312731
aF0.52296473127573395
aF0.074274375610123788
aF0.12223398787421852
aF0.093615399960533877
aF0.085897251481238709
aF0.11984039090334536
aF0.079252386075789494
aF0.17721944455083141
aa(lp408
F0.14406979067660436
aF0.43789097857493525
aF0.2919275102751126
aF0.23117774832895205
aF0.7634899987283601
aF0.9183241363425354
aF0.096668867672010883
aF0.71377207371950036
aF0.9484787899055821
aF0.13464142472507551
aF0.53506382219946769
aF0.047116768212126139
aF0.13803945829569492
aF0.10476421381421484
aF0.086518072566279566
aF0.21631440860960283
aF0.15611567577691318
aF0.17721944455083141
aa(lp409
F0.11733674698787734
aF0.43934754916694502
aF0.28636102149175352
aF0.17240277121549513
aF0.77965094508917587
aF0.95552077480416453
aF0.076831603327493614
aF0.71587456242744185
aF0.9667242595570209
aF0.099029713382075293
aF0.5154224979193075
aF0.068496913042566152
aF0.12358602628048623
aF0.10238400267651723
aF0.065376669345299551
aF0.21631440860960283
aF0.15611567577691318
aF0.1343078390600673
aa(lp410
F0.11429872593763114
aF0.44437360436982359
aF0.072010083850006179
aF0.17240277121549513
aF0.77965094508917587
aF0.030545126315469795
aF0.07395126983888764
aF0.73716341137461661
aF0.96373349356271543
aF0.11519520205114693
aF0.53118268650844447
aF0.068626918368342185
aF0.13426073475280828
aF0.073759624401094667
aF0.06423376116537316
aF0.10254323101634036
aF0.092233276072485659
aF0.96983402594603552
aa(lp411
F0.14413223779875517
aF0.43318191616777468
aF0.1730576359549261
aF0.18724456639509129
aF0.81482089508450439
aF0.030545126315469795
aF0.14630746647166179
aF0.73224739608854283
aF0.2572332531384891
aF0.15233660042848329
aF0.52243885695226566
aF0.070474568943283675
aF0.15226110118021693
aF0.062660782122518244
aF0.17188522015276592
aF0.097523063617338535
aF0.079392531608301758
aF0.96983402594603552
aa(lp412
F0.16306551191412688
aF0.38435973935769463
aF0.65754015437094782
aF0.34045540641493954
aF0.81482089508450439
aF0.062733845219755335
aF0.19576017845043417
aF0.7150046805925806
aF0.98302428217181825
aF0.15845127632137085
aF0.49470877657384937
aF0.096670477182661446
aF0.14922201472381269
aF0.017410129234905831
aF0.7813710694492495
aF0.097523063617338535
aF0.022820790952484425
aF0.95730483954768053
aaa(lp413
(lp414
F0.12103748547199671
aF0.43097622529520363
aF0.25009505480146599
aF0.15193883431335514
aF0.74618112366418576
aF0.6388144691598393
aF0.094768491275936784
aF0.7237510179005161
aF0.95552892304062542
aF0.12777244205096988
aF0.55057891713943641
aF0.06286593628404083
aF0.12228212622836623
aF0.089475456760970504
aF0.068160760964780256
aF0.12493972463733144
aF0.2152275174407125
aF0.18261472779798879
aa(lp415
F0.13082987422382075
aF0.41794498748844361
aF0.28253862812851777
aF0.15193883431335514
aF0.75137638550432295
aF0.92862759164820985
aF0.11491651705046088
aF0.70122245078806755
aF0.96676651587998008
aF0.11514274997408401
aF0.5154224979193075
aF0.06286593628404083
aF0.13836125430134405
aF0.094275294302416629
aF0.067979059189372887
aF0.13333508731941465
aF0.12865509275485038
aF0.11189736805933873
aa(lp416
F0.13523813550347979
aF0.42413908583646309
aF0.2998321105270077
aF0.14080806646760111
aF0.76706301068462945
aF0.088740521707759701
aF0.11637866406800948
aF0.69048933100811638
aF0.96579518965047362
aF0.12899874640050085
aF0.51909449721230994
aF0.064262188900889153
aF0.13698245891037461
aF0.10345614574262794
aF0.085549122593755356
aF0.13333508731941465
aF0.12865509275485038
aF0.91163718270372596
aa(lp417
F0.12500481583825768
aF0.41292735805669323
aF0.1914286223766114
aF0.14080806646760111
aF0.75232733172198707
aF0.088740521707759701
aF0.091917475335674764
aF0.68451690366487461
aF0.70696857303507343
aF0.12899874640050085
aF0.51909449721230994
aF0.059660923998160004
aF0.13351584681413378
aF0.11611128228835513
aF0.10565283385125832
aF0.11726648008378743
aF0.10513740547713446
aF0.93095844073872314
aa(lp418
F0.13261086546780193
aF0.40762450347692469
aF0.19521850429419629
aF0.23270064105728699
aF0.75232733172198707
aF0.12748869690928977
aF0.09952997753854978
aF0.68884342088260153
aF0.96674725618437074
aF0.11570339865313563
aF0.50760256307279039
aF0.082527252381835961
aF0.15854753007846428
aF0.099246313183757803
aF0.08297093343168839
aF0.11726648008378743
aF0.10513740547713446
aF0.93095844073872314
aa(lp419
F0.14895899958823206
aF0.39721798175704731
aF0.32025397946666651
aF0.23270064105728699
aF0.75621381984725056
aF0.91976732905451952
aF0.12849086160180781
aF0.70285576259851723
aF0.99999999999999989
aF0.12465327386804127
aF0.53552632408081369
aF0.083942295429538336
aF0.16027363637244094
aF0.079399146312127161
aF0.087972257665831929
aF0.12364402186424223
aF0.075591182774342319
aF0.13498822590138126
aa(lp420
F0.13527107442224623
aF0.39652346480153933
aF0.26732116456587696
aF0.1137377991527402
aF0.75621381984725056
aF0.64245732355105334
aF0.11348994707653146
aF0.7036764217181587
aF0.97557342262401803
aF0.12465327386804127
aF0.5154224979193075
aF0.070872298358022265
aF0.15607089258988965
aF0.081682401277263408
aF0.087512879415477765
aF0.12908837955220234
aF0.098586204159435656
aF0.15510462341615538
aa(lp421
F0.13019070059645571
aF0.41658187934068713
aF0.24670114341691138
aF0.1137377991527402
aF0.76348824412953131
aF0.64245732355105334
aF0.11178651582761309
aF0.71779184282663089
aF0.97396993540322896
aF0.13897427051086275
aF0.51550902674092391
aF0.06055393977393532
aF0.14559913334292721
aF0.092417452587576068
aF0.07149931146619741
aF0.12908837955220234
aF0.098586204159435656
aF0.15510462341615538
aa(lp422
F0.15601415660412205
aF0.40498858813249888
aF0.28063713037685739
aF0.2896894543548395
aF0.81093473508639935
aF0.94817576912474288
aF0.1767747658561751
aF0.71742731592506936
aF0.97437179448380795
aF0.15383436938654438
aF0.49237611852279611
aF0.058034952690231026
aF0.14642079138638886
aF0.04015436460145641
aF0.074008999121658217
aF0.10834028886208441
aF0.056877957464521178
aF0.10665852253020791
aa(lp423
F0.13390492364929663
aF0.3987871966762
aF0.28793910317396104
aF0.20759604972847201
aF0.73767119831223593
aF0.065686549404917582
aF0.081166646316214397
aF0.70765287331144977
aF0.97440045229616845
aF0.14173185167593061
aF0.48675356790431012
aF0.061322825871345216
aF0.13144907961065611
aF0.046440907590842267
aF0.088877321562154887
aF0.16805266485004866
aF0.17903304887326718
aF0.90452750189373465
aa(lp424
F0.11952217371931699
aF0.41068644467424009
aF0.31011272379945543
aF0.20759604972847201
aF0.73767119831223593
aF0.065686549404917582
aF0.069174076907402404
aF0.67555573891491827
aF0.98961411238234365
aF0.11612380308765378
aF0.5305699643981423
aF0.068419245371775711
aF0.11228995126961566
aF0.098016007514315218
aF0.093149778957663604
aF0.16805266485004866
aF0.17903304887326718
aF0.90452750189373465
aa(lp425
F0.12818860791577541
aF0.39762760840601097
aF0.33222906193740015
aF0.21752332120060702
aF0.77514137828927254
aF0.97127209591201968
aF0.12560663526114854
aF0.70408410520157982
aF0.98682186770955971
aF0.1244671419737816
aF0.52756995244858018
aF0.077523643237447051
aF0.12440912187056299
aF0.044693901071109723
aF0.098941193670880972
aF0.11910576796992126
aF0.075537670658851946
aF0.12766059763364448
aa(lp426
F0.14178020189536944
aF0.41028490916290877
aF0.30252245434423441
aF0.21752332120060702
aF0.76369596657803918
aF0.90914260256688029
aF0.1457446735824883
aF0.71498327931034311
aF0.96813988831097431
aF0.1244671419737816
aF0.52355929628125575
aF0.054875670477828105
aF0.12725439538795427
aF0.077894170628699078
aF0.096732152311864522
aF0.13056823437265483
aF0.073722588709039041
aF0.13932442974951043
aa(lp427
F0.15005730906672232
aF0.41192670110662777
aF0.2727129506584054
aF0.27599488826944873
aF0.76074466923024786
aF0.90914260256688029
aF0.14809159718405054
aF0.72455141905878562
aF0.95188312690037069
aF0.12520322965994496
aF0.52614910391565872
aF0.047632918502474114
aF0.1341045932434799
aF0.09347126394909043
aF0.074254992075922066
aF0.13056823437265483
aF0.073722588709039041
aF0.13932442974951043
aa(lp428
F0.14336688023396116
aF0.32268408339919075
aF0.28398024187854454
aF0.27599488826944873
aF0.76074466923024786
aF0.91537766117415642
aF0.1331952643102334
aF0.66648830737195608
aF0.93972599643172106
aF0.12998272645598924
aF0.45567283293220262
aF0.047972298162119356
aF0.14172612079718733
aF0.018601047884701235
aF0.09634494126985578
aF0.10824727023308209
aF0.036168650735955307
aF0.13853282937158179
aaa.